ARM GAS  C:\Users\Midori\AppData\Local\Temp\cciJEmYH.s 			page 1


   1              		.cpu cortex-m0
   2              		.fpu softvfp
   3              		.eabi_attribute 20, 1
   4              		.eabi_attribute 21, 1
   5              		.eabi_attribute 23, 3
   6              		.eabi_attribute 24, 1
   7              		.eabi_attribute 25, 1
   8              		.eabi_attribute 26, 1
   9              		.eabi_attribute 30, 6
  10              		.eabi_attribute 34, 0
  11              		.eabi_attribute 18, 4
  12              		.code	16
  13              		.file	"app_accel.c"
  14              		.text
  15              	.Ltext0:
  16              		.cfi_sections	.debug_frame
  17              		.comm	scan_status,1,1
  18              		.comm	x,1,1
  19              		.comm	y,1,1
  20              		.comm	z,1,1
  21              		.comm	ADC_x_current,2,2
  22              		.comm	ADC_y_current,2,2
  23              		.comm	ADC_z_current,2,2
  24              		.comm	ADC_x_previous,2,2
  25              		.comm	ADC_y_previous,2,2
  26              		.comm	ADC_z_previous,2,2
  27              		.comm	BLE_Command,1,1
  28              		.comm	state,1,1
  29              		.comm	connStatus,1,1
  30              		.comm	lpMode,1,1
  31              		.comm	blessState,1,1
  32              		.comm	interruptStatus,1,1
  33              		.section	.text.SendCommand,"ax",%progbits
  34              		.align	2
  35              		.global	SendCommand
  36              		.code	16
  37              		.thumb_func
  38              		.type	SendCommand, %function
  39              	SendCommand:
  40              	.LFB37:
  41              		.file 1 ".\\app_accel.c"
   1:.\app_accel.c **** /*****************************************************************************************
   2:.\app_accel.c **** * File Name: app_UART.c
   3:.\app_accel.c **** *
   4:.\app_accel.c **** * Description:
   5:.\app_accel.c **** *  Common BLE application code for client devices.
   6:.\app_accel.c **** *
   7:.\app_accel.c **** *****************************************************************************************
   8:.\app_accel.c **** * Copyright 2015, Cypress Semiconductor Corporation.  All rights reserved.
   9:.\app_accel.c **** * You may use this file only in accordance with the license, terms, conditions,
  10:.\app_accel.c **** * disclaimers, and limitations in the end user license agreement accompanying
  11:.\app_accel.c **** * the software package with which this file was provided.
  12:.\app_accel.c **** *****************************************************************************************/
  13:.\app_accel.c **** 
  14:.\app_accel.c **** #include "app_accel.h"
  15:.\app_accel.c **** #include "app_Ble.h"
  16:.\app_accel.c **** 
ARM GAS  C:\Users\Midori\AppData\Local\Temp\cciJEmYH.s 			page 2


  17:.\app_accel.c **** 
  18:.\app_accel.c **** /*****************************************************************************************
  19:.\app_accel.c **** * Function Name: SendCommand
  20:.\app_accel.c **** ******************************************************************************************
  21:.\app_accel.c **** *
  22:.\app_accel.c **** * Summary:
  23:.\app_accel.c **** *  This function send the command over BLE notification. 
  24:.\app_accel.c **** *
  25:.\app_accel.c **** * Parameters:
  26:.\app_accel.c **** *  None
  27:.\app_accel.c **** *
  28:.\app_accel.c **** * Return:
  29:.\app_accel.c **** *   None.
  30:.\app_accel.c **** *
  31:.\app_accel.c **** *****************************************************************************************/
  32:.\app_accel.c **** 
  33:.\app_accel.c **** void SendCommand()
  34:.\app_accel.c **** {
  42              		.loc 1 34 0
  43              		.cfi_startproc
  44 0000 80B5     		push	{r7, lr}
  45              		.cfi_def_cfa_offset 8
  46              		.cfi_offset 7, -8
  47              		.cfi_offset 14, -4
  48 0002 84B0     		sub	sp, sp, #16
  49              		.cfi_def_cfa_offset 24
  50 0004 00AF     		add	r7, sp, #0
  51              		.cfi_def_cfa_register 7
  35:.\app_accel.c ****    
  36:.\app_accel.c ****     CYBLE_GATTS_HANDLE_VALUE_NTF_T      uartTxDataNtf;
  37:.\app_accel.c ****     
  38:.\app_accel.c ****     BLE_Command = 'x';
  52              		.loc 1 38 0
  53 0006 134B     		ldr	r3, .L3
  54 0008 7822     		mov	r2, #120
  55 000a 1A70     		strb	r2, [r3]
  39:.\app_accel.c **** 
  40:.\app_accel.c **** 		if(connStatus== CONNECTED)
  56              		.loc 1 40 0
  57 000c 124B     		ldr	r3, .L3+4
  58 000e 1B78     		ldrb	r3, [r3]
  59 0010 012B     		cmp	r3, #1
  60 0012 19D1     		bne	.L2
  41:.\app_accel.c **** 		{
  42:.\app_accel.c **** 		        
  43:.\app_accel.c **** 			   	uartTxDataNtf.value.val  = &BLE_Command;
  61              		.loc 1 43 0
  62 0014 3B1D     		add	r3, r7, #4
  63 0016 0F4A     		ldr	r2, .L3
  64 0018 1A60     		str	r2, [r3]
  44:.\app_accel.c **** 		        uartTxDataNtf.value.len  = 1;
  65              		.loc 1 44 0
  66 001a 3B1D     		add	r3, r7, #4
  67 001c 0122     		mov	r2, #1
  68 001e 9A80     		strh	r2, [r3, #4]
  45:.\app_accel.c **** 		        uartTxDataNtf.attrHandle = CYBLE_SERVER_ACCEL_SERVER_ACCEL_TX_DATA_CHAR_HANDLE;
  69              		.loc 1 45 0
ARM GAS  C:\Users\Midori\AppData\Local\Temp\cciJEmYH.s 			page 3


  70 0020 3B1D     		add	r3, r7, #4
  71 0022 0E22     		mov	r2, #14
  72 0024 1A81     		strh	r2, [r3, #8]
  46:.\app_accel.c **** 		        CyBle_GattsNotification(cyBle_connHandle, &uartTxDataNtf);
  73              		.loc 1 46 0
  74 0026 0D4B     		ldr	r3, .L3+8
  75 0028 391D     		add	r1, r7, #4
  76 002a 1A78     		ldrb	r2, [r3]
  77 002c 5B78     		ldrb	r3, [r3, #1]
  78 002e 1B02     		lsl	r3, r3, #8
  79 0030 1A43     		orr	r2, r3
  80 0032 0023     		mov	r3, #0
  81 0034 1204     		lsl	r2, r2, #16
  82 0036 120C     		lsr	r2, r2, #16
  83 0038 1B0C     		lsr	r3, r3, #16
  84 003a 1B04     		lsl	r3, r3, #16
  85 003c 1343     		orr	r3, r2
  86 003e 181C     		mov	r0, r3
  87 0040 FFF7FEFF 		bl	CyBle_GattsNotification
  47:.\app_accel.c **** 		        CyBle_ProcessEvents();
  88              		.loc 1 47 0
  89 0044 FFF7FEFF 		bl	CyBle_ProcessEvents
  90              	.L2:
  48:.\app_accel.c **** 		  
  49:.\app_accel.c **** 		        
  50:.\app_accel.c **** 		}
  51:.\app_accel.c **** 	{
  52:.\app_accel.c ****     CySysPmSleep();		
  91              		.loc 1 52 0
  92 0048 FFF7FEFF 		bl	CySysPmSleep
  53:.\app_accel.c **** 	}
  54:.\app_accel.c **** }
  93              		.loc 1 54 0
  94 004c BD46     		mov	sp, r7
  95 004e 04B0     		add	sp, sp, #16
  96              		@ sp needed
  97 0050 80BD     		pop	{r7, pc}
  98              	.L4:
  99 0052 C046     		.align	2
 100              	.L3:
 101 0054 00000000 		.word	BLE_Command
 102 0058 00000000 		.word	connStatus
 103 005c 00000000 		.word	cyBle_connHandle
 104              		.cfi_endproc
 105              	.LFE37:
 106              		.size	SendCommand, .-SendCommand
 107              		.text
 108              	.Letext0:
 109              		.file 2 "Generated_Source\\PSoC4/cytypes.h"
 110              		.file 3 "Generated_Source\\PSoC4/BLE_Stack.h"
 111              		.file 4 "Generated_Source\\PSoC4/BLE_StackGatt.h"
 112              		.file 5 "Generated_Source\\PSoC4/BLE_StackGattServer.h"
 113              		.file 6 "Generated_Source\\PSoC4/BLE_eventHandler.h"
 114              		.file 7 ".\\app_accel.h"
 115              		.file 8 ".\\main.h"