ARM GAS  C:\Users\Midori\AppData\Local\Temp\ccQxroFn.s 			page 1


   1              		.cpu cortex-m0
   2              		.fpu softvfp
   3              		.eabi_attribute 20, 1
   4              		.eabi_attribute 21, 1
   5              		.eabi_attribute 23, 3
   6              		.eabi_attribute 24, 1
   7              		.eabi_attribute 25, 1
   8              		.eabi_attribute 26, 1
   9              		.eabi_attribute 30, 6
  10              		.eabi_attribute 34, 0
  11              		.eabi_attribute 18, 4
  12              		.code	16
  13              		.file	"app_Ble.c"
  14              		.text
  15              	.Ltext0:
  16              		.cfi_sections	.debug_frame
  17              		.comm	scan_status,1,1
  18              		.comm	x,1,1
  19              		.comm	y,1,1
  20              		.comm	z,1,1
  21              		.comm	ADC_x_current,2,2
  22              		.comm	ADC_y_current,2,2
  23              		.comm	ADC_z_current,2,2
  24              		.comm	ADC_x_previous,2,2
  25              		.comm	ADC_y_previous,2,2
  26              		.comm	ADC_z_previous,2,2
  27              		.comm	BLE_Command,1,1
  28              		.comm	state,1,1
  29              		.comm	connStatus,1,1
  30              		.comm	lpMode,1,1
  31              		.comm	blessState,1,1
  32              		.comm	interruptStatus,1,1
  33              		.global	mtuSize
  34              		.data
  35              		.align	1
  36              		.type	mtuSize, %object
  37              		.size	mtuSize, 2
  38              	mtuSize:
  39 0000 1700     		.short	23
  40              		.section	.text.HandleBleProcessing,"ax",%progbits
  41              		.align	2
  42              		.global	HandleBleProcessing
  43              		.code	16
  44              		.thumb_func
  45              		.type	HandleBleProcessing, %function
  46              	HandleBleProcessing:
  47              	.LFB37:
  48              		.file 1 ".\\app_Ble.c"
   1:.\app_Ble.c   **** /*******************************************************************************
   2:.\app_Ble.c   **** * File Name: app_Ble.c
   3:.\app_Ble.c   **** *
   4:.\app_Ble.c   **** * Description:
   5:.\app_Ble.c   **** *  Common BLE application code for client devices.
   6:.\app_Ble.c   **** *
   7:.\app_Ble.c   **** *******************************************************************************
   8:.\app_Ble.c   **** * Copyright 2015, Cypress Semiconductor Corporation.  All rights reserved.
   9:.\app_Ble.c   **** * You may use this file only in accordance with the license, terms, conditions,
ARM GAS  C:\Users\Midori\AppData\Local\Temp\ccQxroFn.s 			page 2


  10:.\app_Ble.c   **** * disclaimers, and limitations in the end user license agreement accompanying
  11:.\app_Ble.c   **** * the software package with which this file was provided.
  12:.\app_Ble.c   **** *******************************************************************************/
  13:.\app_Ble.c   **** 
  14:.\app_Ble.c   **** #include "app_ble.h"
  15:.\app_Ble.c   **** 
  16:.\app_Ble.c   **** /* MTU size to be used by Client and Server after MTU exchange */
  17:.\app_Ble.c   **** uint16 mtuSize      = CYBLE_GATT_MTU;   
  18:.\app_Ble.c   **** 
  19:.\app_Ble.c   **** extern uint8 applicationPower;
  20:.\app_Ble.c   **** 
  21:.\app_Ble.c   **** /*******************************************************************************
  22:.\app_Ble.c   **** * Function Name: HandleBleProcessing
  23:.\app_Ble.c   **** ********************************************************************************
  24:.\app_Ble.c   **** *
  25:.\app_Ble.c   **** * Summary:
  26:.\app_Ble.c   **** *   Handles the BLE state machine for intiating different procedures
  27:.\app_Ble.c   **** *   during different states of BLESS.
  28:.\app_Ble.c   **** *
  29:.\app_Ble.c   **** * Parameters:
  30:.\app_Ble.c   **** *   None.
  31:.\app_Ble.c   **** *
  32:.\app_Ble.c   **** * Return:
  33:.\app_Ble.c   **** *   None.
  34:.\app_Ble.c   **** *
  35:.\app_Ble.c   **** *******************************************************************************/
  36:.\app_Ble.c   **** void HandleBleProcessing(void)
  37:.\app_Ble.c   **** {    
  49              		.loc 1 37 0
  50              		.cfi_startproc
  51 0000 80B5     		push	{r7, lr}
  52              		.cfi_def_cfa_offset 8
  53              		.cfi_offset 7, -8
  54              		.cfi_offset 14, -4
  55 0002 00AF     		add	r7, sp, #0
  56              		.cfi_def_cfa_register 7
  38:.\app_Ble.c   ****     switch (cyBle_state)
  57              		.loc 1 38 0
  58 0004 0F4B     		ldr	r3, .L9
  59 0006 1B78     		ldrb	r3, [r3]
  60 0008 032B     		cmp	r3, #3
  61 000a 17D0     		beq	.L8
  62 000c 042B     		cmp	r3, #4
  63 000e 11D0     		beq	.L4
  64 0010 022B     		cmp	r3, #2
  65 0012 00D0     		beq	.L5
  39:.\app_Ble.c   ****     {
  40:.\app_Ble.c   ****         case CYBLE_STATE_ADVERTISING:
  41:.\app_Ble.c   ****             break;
  42:.\app_Ble.c   ****         
  43:.\app_Ble.c   ****         case CYBLE_STATE_CONNECTED:
  44:.\app_Ble.c   **** 		
  45:.\app_Ble.c   **** 		    connStatus= CONNECTED;
  46:.\app_Ble.c   **** 
  47:.\app_Ble.c   ****             if(CyBle_GattGetBusStatus() != CYBLE_STACK_STATE_BUSY)
  48:.\app_Ble.c   ****             {
  49:.\app_Ble.c   ****                 SendCommand();/*This will send the command over BLE*/
ARM GAS  C:\Users\Midori\AppData\Local\Temp\ccQxroFn.s 			page 3


  50:.\app_Ble.c   **** 				applicationPower = DEEPSLEEP;/*Once command has been sent the state has been set to DEEPSLEEP*/
  51:.\app_Ble.c   **** 			
  52:.\app_Ble.c   ****             }
  53:.\app_Ble.c   **** 			break;
  54:.\app_Ble.c   ****                 
  55:.\app_Ble.c   ****         case CYBLE_STATE_DISCONNECTED:
  56:.\app_Ble.c   ****         	CyBle_GappStartAdvertisement(CYBLE_ADVERTISING_FAST);
  57:.\app_Ble.c   ****         	break;
  58:.\app_Ble.c   ****         default:
  59:.\app_Ble.c   ****             break;       
  66              		.loc 1 59 0
  67 0014 13E0     		b	.L1
  68              	.L5:
  45:.\app_Ble.c   **** 
  69              		.loc 1 45 0
  70 0016 0C4B     		ldr	r3, .L9+4
  71 0018 0122     		mov	r2, #1
  72 001a 1A70     		strb	r2, [r3]
  47:.\app_Ble.c   ****             {
  73              		.loc 1 47 0
  74 001c 0B4B     		ldr	r3, .L9+8
  75 001e 1B78     		ldrb	r3, [r3]
  76 0020 DBB2     		uxtb	r3, r3
  77 0022 012B     		cmp	r3, #1
  78 0024 05D0     		beq	.L7
  49:.\app_Ble.c   **** 				applicationPower = DEEPSLEEP;/*Once command has been sent the state has been set to DEEPSLEEP*/
  79              		.loc 1 49 0
  80 0026 FFF7FEFF 		bl	SendCommand
  50:.\app_Ble.c   **** 			
  81              		.loc 1 50 0
  82 002a 094B     		ldr	r3, .L9+12
  83 002c 0522     		mov	r2, #5
  84 002e 1A70     		strb	r2, [r3]
  53:.\app_Ble.c   ****                 
  85              		.loc 1 53 0
  86 0030 05E0     		b	.L1
  87              	.L7:
  88 0032 04E0     		b	.L1
  89              	.L4:
  56:.\app_Ble.c   ****         	break;
  90              		.loc 1 56 0
  91 0034 0020     		mov	r0, #0
  92 0036 FFF7FEFF 		bl	CyBle_GappStartAdvertisement
  57:.\app_Ble.c   ****         default:
  93              		.loc 1 57 0
  94 003a 00E0     		b	.L1
  95              	.L8:
  41:.\app_Ble.c   ****         
  96              		.loc 1 41 0
  97 003c C046     		mov	r8, r8
  98              	.L1:
  60:.\app_Ble.c   ****     }
  61:.\app_Ble.c   **** }
  99              		.loc 1 61 0
 100 003e BD46     		mov	sp, r7
 101              		@ sp needed
 102 0040 80BD     		pop	{r7, pc}
ARM GAS  C:\Users\Midori\AppData\Local\Temp\ccQxroFn.s 			page 4


 103              	.L10:
 104 0042 C046     		.align	2
 105              	.L9:
 106 0044 00000000 		.word	cyBle_state
 107 0048 00000000 		.word	connStatus
 108 004c 00000000 		.word	cyBle_busyStatus
 109 0050 00000000 		.word	applicationPower
 110              		.cfi_endproc
 111              	.LFE37:
 112              		.size	HandleBleProcessing, .-HandleBleProcessing
 113              		.section	.text.AppCallBack,"ax",%progbits
 114              		.align	2
 115              		.global	AppCallBack
 116              		.code	16
 117              		.thumb_func
 118              		.type	AppCallBack, %function
 119              	AppCallBack:
 120              	.LFB38:
  62:.\app_Ble.c   **** 
  63:.\app_Ble.c   **** /*******************************************************************************
  64:.\app_Ble.c   **** * Function Name: AppCallBack
  65:.\app_Ble.c   **** ********************************************************************************
  66:.\app_Ble.c   **** *
  67:.\app_Ble.c   **** * Summary:
  68:.\app_Ble.c   **** *   Call back function for BLE stack to handle BLESS events
  69:.\app_Ble.c   **** *
  70:.\app_Ble.c   **** * Parameters:
  71:.\app_Ble.c   **** *   event       - the event generated by stack
  72:.\app_Ble.c   **** *   eventParam  - the parameters related to the corresponding event
  73:.\app_Ble.c   **** *
  74:.\app_Ble.c   **** * Return:
  75:.\app_Ble.c   **** *   None.
  76:.\app_Ble.c   **** *
  77:.\app_Ble.c   **** *******************************************************************************/
  78:.\app_Ble.c   **** void AppCallBack(uint32 event, void *eventParam)
  79:.\app_Ble.c   **** {   
 121              		.loc 1 79 0
 122              		.cfi_startproc
 123 0000 80B5     		push	{r7, lr}
 124              		.cfi_def_cfa_offset 8
 125              		.cfi_offset 7, -8
 126              		.cfi_offset 14, -4
 127 0002 82B0     		sub	sp, sp, #8
 128              		.cfi_def_cfa_offset 16
 129 0004 00AF     		add	r7, sp, #0
 130              		.cfi_def_cfa_register 7
 131 0006 7860     		str	r0, [r7, #4]
 132 0008 3960     		str	r1, [r7]
  80:.\app_Ble.c   ****     switch (event)
 133              		.loc 1 80 0
 134 000a 7B68     		ldr	r3, [r7, #4]
 135 000c 282B     		cmp	r3, #40
 136 000e 15D0     		beq	.L21
 137 0010 02D8     		bhi	.L14
 138 0012 012B     		cmp	r3, #1
 139 0014 14D0     		beq	.L22
  81:.\app_Ble.c   ****     {
ARM GAS  C:\Users\Midori\AppData\Local\Temp\ccQxroFn.s 			page 5


  82:.\app_Ble.c   ****         case CYBLE_EVT_STACK_ON:
  83:.\app_Ble.c   ****             break;
  84:.\app_Ble.c   ****             
  85:.\app_Ble.c   ****         case CYBLE_EVT_GAP_DEVICE_DISCONNECTED:
  86:.\app_Ble.c   ****             break;
  87:.\app_Ble.c   ****             
  88:.\app_Ble.c   ****         case CYBLE_EVT_GATT_CONNECT_IND:
  89:.\app_Ble.c   ****             break;
  90:.\app_Ble.c   ****         
  91:.\app_Ble.c   ****                
  92:.\app_Ble.c   ****         case CYBLE_EVT_GATTS_XCNHG_MTU_REQ:
  93:.\app_Ble.c   ****             
  94:.\app_Ble.c   ****             if(CYBLE_GATT_MTU > ((CYBLE_GATT_XCHG_MTU_PARAM_T *)eventParam)->mtu)
  95:.\app_Ble.c   ****             {
  96:.\app_Ble.c   ****                 mtuSize = ((CYBLE_GATT_XCHG_MTU_PARAM_T *)eventParam)->mtu;
  97:.\app_Ble.c   ****             }
  98:.\app_Ble.c   ****             else
  99:.\app_Ble.c   ****             {
 100:.\app_Ble.c   ****                 mtuSize = CYBLE_GATT_MTU;
 101:.\app_Ble.c   ****             }
 102:.\app_Ble.c   ****             
 103:.\app_Ble.c   ****             break;
 104:.\app_Ble.c   ****         default:
 105:.\app_Ble.c   ****             break;
 140              		.loc 1 105 0
 141 0016 16E0     		b	.L11
 142              	.L14:
  80:.\app_Ble.c   ****     switch (event)
 143              		.loc 1 80 0
 144 0018 412B     		cmp	r3, #65
 145 001a 13D0     		beq	.L23
 146 001c 432B     		cmp	r3, #67
 147 001e 00D0     		beq	.L17
 148              		.loc 1 105 0
 149 0020 11E0     		b	.L11
 150              	.L17:
  94:.\app_Ble.c   ****             {
 151              		.loc 1 94 0
 152 0022 3B68     		ldr	r3, [r7]
 153 0024 5B88     		ldrh	r3, [r3, #2]
 154 0026 162B     		cmp	r3, #22
 155 0028 04D8     		bhi	.L19
  96:.\app_Ble.c   ****             }
 156              		.loc 1 96 0
 157 002a 3B68     		ldr	r3, [r7]
 158 002c 5A88     		ldrh	r2, [r3, #2]
 159 002e 074B     		ldr	r3, .L24
 160 0030 1A80     		strh	r2, [r3]
 103:.\app_Ble.c   ****         default:
 161              		.loc 1 103 0
 162 0032 08E0     		b	.L11
 163              	.L19:
 100:.\app_Ble.c   ****             }
 164              		.loc 1 100 0
 165 0034 054B     		ldr	r3, .L24
 166 0036 1722     		mov	r2, #23
 167 0038 1A80     		strh	r2, [r3]
ARM GAS  C:\Users\Midori\AppData\Local\Temp\ccQxroFn.s 			page 6


 103:.\app_Ble.c   ****         default:
 168              		.loc 1 103 0
 169 003a 04E0     		b	.L11
 170              	.L21:
  86:.\app_Ble.c   ****             
 171              		.loc 1 86 0
 172 003c C046     		mov	r8, r8
 173 003e 02E0     		b	.L11
 174              	.L22:
  83:.\app_Ble.c   ****             
 175              		.loc 1 83 0
 176 0040 C046     		mov	r8, r8
 177 0042 00E0     		b	.L11
 178              	.L23:
  89:.\app_Ble.c   ****         
 179              		.loc 1 89 0
 180 0044 C046     		mov	r8, r8
 181              	.L11:
 106:.\app_Ble.c   ****     }
 107:.\app_Ble.c   **** }
 182              		.loc 1 107 0
 183 0046 BD46     		mov	sp, r7
 184 0048 02B0     		add	sp, sp, #8
 185              		@ sp needed
 186 004a 80BD     		pop	{r7, pc}
 187              	.L25:
 188              		.align	2
 189              	.L24:
 190 004c 00000000 		.word	mtuSize
 191              		.cfi_endproc
 192              	.LFE38:
 193              		.size	AppCallBack, .-AppCallBack
 194              		.text
 195              	.Letext0:
 196              		.file 2 "Generated_Source\\PSoC4/cytypes.h"
 197              		.file 3 "Generated_Source\\PSoC4/BLE_Stack.h"
 198              		.file 4 "Generated_Source\\PSoC4/BLE_StackGatt.h"
 199              		.file 5 "Generated_Source\\PSoC4/BLE_eventHandler.h"
 200              		.file 6 ".\\app_accel.h"
 201              		.file 7 ".\\main.h"