ARM GAS  C:\Users\Midori\AppData\Local\Temp\ccrWBQRK.s 			page 1


   1              		.cpu cortex-m0
   2              		.fpu softvfp
   3              		.eabi_attribute 20, 1
   4              		.eabi_attribute 21, 1
   5              		.eabi_attribute 23, 3
   6              		.eabi_attribute 24, 1
   7              		.eabi_attribute 25, 1
   8              		.eabi_attribute 26, 1
   9              		.eabi_attribute 30, 6
  10              		.eabi_attribute 34, 0
  11              		.eabi_attribute 18, 4
  12              		.code	16
  13              		.file	"debug.c"
  14              		.text
  15              	.Ltext0:
  16              		.cfi_sections	.debug_frame
  17              		.global _printf_float
  18              		.code	16
  19              		.section	.text._write,"ax",%progbits
  20              		.align	2
  21              		.global	_write
  22              		.code	16
  23              		.thumb_func
  24              		.type	_write, %function
  25              	_write:
  26              	.LFB37:
  27              		.file 1 "..\\..\\BleWifiProject\\BLE_Wireless_Power_Transmitter01.cydsn\\debug.c"
   1:..\..\BleWifiProject\BLE_Wireless_Power_Transmitter01.cydsn/debug.c **** /*******************************************************************************
   2:..\..\BleWifiProject\BLE_Wireless_Power_Transmitter01.cydsn/debug.c **** * File Name: debug.c
   3:..\..\BleWifiProject\BLE_Wireless_Power_Transmitter01.cydsn/debug.c **** *
   4:..\..\BleWifiProject\BLE_Wireless_Power_Transmitter01.cydsn/debug.c **** * Version: 1.0
   5:..\..\BleWifiProject\BLE_Wireless_Power_Transmitter01.cydsn/debug.c **** *
   6:..\..\BleWifiProject\BLE_Wireless_Power_Transmitter01.cydsn/debug.c **** * Description:
   7:..\..\BleWifiProject\BLE_Wireless_Power_Transmitter01.cydsn/debug.c **** *  This file contains functions for printf functionality.
   8:..\..\BleWifiProject\BLE_Wireless_Power_Transmitter01.cydsn/debug.c **** *
   9:..\..\BleWifiProject\BLE_Wireless_Power_Transmitter01.cydsn/debug.c **** * Hardware Dependency:
  10:..\..\BleWifiProject\BLE_Wireless_Power_Transmitter01.cydsn/debug.c **** *  CY8CKIT-042 BLE
  11:..\..\BleWifiProject\BLE_Wireless_Power_Transmitter01.cydsn/debug.c **** * 
  12:..\..\BleWifiProject\BLE_Wireless_Power_Transmitter01.cydsn/debug.c **** ********************************************************************************
  13:..\..\BleWifiProject\BLE_Wireless_Power_Transmitter01.cydsn/debug.c **** * Copyright 2014, Cypress Semiconductor Corporation.  All rights reserved.
  14:..\..\BleWifiProject\BLE_Wireless_Power_Transmitter01.cydsn/debug.c **** * You may use this file only in accordance with the license, terms, conditions,
  15:..\..\BleWifiProject\BLE_Wireless_Power_Transmitter01.cydsn/debug.c **** * disclaimers, and limitations in the end user license agreement accompanying
  16:..\..\BleWifiProject\BLE_Wireless_Power_Transmitter01.cydsn/debug.c **** * the software package with which this file was provided.
  17:..\..\BleWifiProject\BLE_Wireless_Power_Transmitter01.cydsn/debug.c **** *******************************************************************************/
  18:..\..\BleWifiProject\BLE_Wireless_Power_Transmitter01.cydsn/debug.c **** 
  19:..\..\BleWifiProject\BLE_Wireless_Power_Transmitter01.cydsn/debug.c **** #include "common.h"
  20:..\..\BleWifiProject\BLE_Wireless_Power_Transmitter01.cydsn/debug.c **** 
  21:..\..\BleWifiProject\BLE_Wireless_Power_Transmitter01.cydsn/debug.c **** #if defined(__ARMCC_VERSION)
  22:..\..\BleWifiProject\BLE_Wireless_Power_Transmitter01.cydsn/debug.c ****     
  23:..\..\BleWifiProject\BLE_Wireless_Power_Transmitter01.cydsn/debug.c **** /* For MDK/RVDS compiler revise fputc function for printf functionality */
  24:..\..\BleWifiProject\BLE_Wireless_Power_Transmitter01.cydsn/debug.c **** struct __FILE 
  25:..\..\BleWifiProject\BLE_Wireless_Power_Transmitter01.cydsn/debug.c **** {
  26:..\..\BleWifiProject\BLE_Wireless_Power_Transmitter01.cydsn/debug.c ****     int handle;  
  27:..\..\BleWifiProject\BLE_Wireless_Power_Transmitter01.cydsn/debug.c **** };
  28:..\..\BleWifiProject\BLE_Wireless_Power_Transmitter01.cydsn/debug.c **** 
  29:..\..\BleWifiProject\BLE_Wireless_Power_Transmitter01.cydsn/debug.c **** enum 
  30:..\..\BleWifiProject\BLE_Wireless_Power_Transmitter01.cydsn/debug.c **** {
ARM GAS  C:\Users\Midori\AppData\Local\Temp\ccrWBQRK.s 			page 2


  31:..\..\BleWifiProject\BLE_Wireless_Power_Transmitter01.cydsn/debug.c ****     STDIN_HANDLE,
  32:..\..\BleWifiProject\BLE_Wireless_Power_Transmitter01.cydsn/debug.c ****     STDOUT_HANDLE,
  33:..\..\BleWifiProject\BLE_Wireless_Power_Transmitter01.cydsn/debug.c ****     STDERR_HANDLE
  34:..\..\BleWifiProject\BLE_Wireless_Power_Transmitter01.cydsn/debug.c **** };
  35:..\..\BleWifiProject\BLE_Wireless_Power_Transmitter01.cydsn/debug.c **** 
  36:..\..\BleWifiProject\BLE_Wireless_Power_Transmitter01.cydsn/debug.c **** FILE __stdin = {STDIN_HANDLE};
  37:..\..\BleWifiProject\BLE_Wireless_Power_Transmitter01.cydsn/debug.c **** FILE __stdout = {STDOUT_HANDLE};
  38:..\..\BleWifiProject\BLE_Wireless_Power_Transmitter01.cydsn/debug.c **** FILE __stderr = {STDERR_HANDLE};
  39:..\..\BleWifiProject\BLE_Wireless_Power_Transmitter01.cydsn/debug.c **** 
  40:..\..\BleWifiProject\BLE_Wireless_Power_Transmitter01.cydsn/debug.c **** int fputc(int ch, FILE *file) 
  41:..\..\BleWifiProject\BLE_Wireless_Power_Transmitter01.cydsn/debug.c **** {
  42:..\..\BleWifiProject\BLE_Wireless_Power_Transmitter01.cydsn/debug.c ****     int ret = EOF;
  43:..\..\BleWifiProject\BLE_Wireless_Power_Transmitter01.cydsn/debug.c **** 
  44:..\..\BleWifiProject\BLE_Wireless_Power_Transmitter01.cydsn/debug.c ****     switch( file->handle )
  45:..\..\BleWifiProject\BLE_Wireless_Power_Transmitter01.cydsn/debug.c ****     {
  46:..\..\BleWifiProject\BLE_Wireless_Power_Transmitter01.cydsn/debug.c ****         case STDOUT_HANDLE:
  47:..\..\BleWifiProject\BLE_Wireless_Power_Transmitter01.cydsn/debug.c ****             UART_DEB_UartPutChar(ch);
  48:..\..\BleWifiProject\BLE_Wireless_Power_Transmitter01.cydsn/debug.c ****             ret = ch ;
  49:..\..\BleWifiProject\BLE_Wireless_Power_Transmitter01.cydsn/debug.c ****             break ;
  50:..\..\BleWifiProject\BLE_Wireless_Power_Transmitter01.cydsn/debug.c **** 
  51:..\..\BleWifiProject\BLE_Wireless_Power_Transmitter01.cydsn/debug.c ****         case STDERR_HANDLE:
  52:..\..\BleWifiProject\BLE_Wireless_Power_Transmitter01.cydsn/debug.c ****             ret = ch ;
  53:..\..\BleWifiProject\BLE_Wireless_Power_Transmitter01.cydsn/debug.c ****             break ;
  54:..\..\BleWifiProject\BLE_Wireless_Power_Transmitter01.cydsn/debug.c **** 
  55:..\..\BleWifiProject\BLE_Wireless_Power_Transmitter01.cydsn/debug.c ****         default:
  56:..\..\BleWifiProject\BLE_Wireless_Power_Transmitter01.cydsn/debug.c ****             file = file;
  57:..\..\BleWifiProject\BLE_Wireless_Power_Transmitter01.cydsn/debug.c ****             break ;
  58:..\..\BleWifiProject\BLE_Wireless_Power_Transmitter01.cydsn/debug.c ****     }
  59:..\..\BleWifiProject\BLE_Wireless_Power_Transmitter01.cydsn/debug.c ****     return ret ;
  60:..\..\BleWifiProject\BLE_Wireless_Power_Transmitter01.cydsn/debug.c **** }
  61:..\..\BleWifiProject\BLE_Wireless_Power_Transmitter01.cydsn/debug.c **** 
  62:..\..\BleWifiProject\BLE_Wireless_Power_Transmitter01.cydsn/debug.c **** #elif defined (__ICCARM__)      /* IAR */
  63:..\..\BleWifiProject\BLE_Wireless_Power_Transmitter01.cydsn/debug.c **** 
  64:..\..\BleWifiProject\BLE_Wireless_Power_Transmitter01.cydsn/debug.c **** /* For IAR compiler revise __write() function for printf functionality */
  65:..\..\BleWifiProject\BLE_Wireless_Power_Transmitter01.cydsn/debug.c **** size_t __write(int handle, const unsigned char * buffer, size_t size)
  66:..\..\BleWifiProject\BLE_Wireless_Power_Transmitter01.cydsn/debug.c **** {
  67:..\..\BleWifiProject\BLE_Wireless_Power_Transmitter01.cydsn/debug.c ****     size_t nChars = 0;
  68:..\..\BleWifiProject\BLE_Wireless_Power_Transmitter01.cydsn/debug.c **** 
  69:..\..\BleWifiProject\BLE_Wireless_Power_Transmitter01.cydsn/debug.c ****     if (buffer == 0)
  70:..\..\BleWifiProject\BLE_Wireless_Power_Transmitter01.cydsn/debug.c ****     {
  71:..\..\BleWifiProject\BLE_Wireless_Power_Transmitter01.cydsn/debug.c ****         /*
  72:..\..\BleWifiProject\BLE_Wireless_Power_Transmitter01.cydsn/debug.c ****          * This means that we should flush internal buffers.  Since we
  73:..\..\BleWifiProject\BLE_Wireless_Power_Transmitter01.cydsn/debug.c ****          * don't we just return.  (Remember, "handle" == -1 means that all
  74:..\..\BleWifiProject\BLE_Wireless_Power_Transmitter01.cydsn/debug.c ****          * handles should be flushed.)
  75:..\..\BleWifiProject\BLE_Wireless_Power_Transmitter01.cydsn/debug.c ****          */
  76:..\..\BleWifiProject\BLE_Wireless_Power_Transmitter01.cydsn/debug.c ****         return (0);
  77:..\..\BleWifiProject\BLE_Wireless_Power_Transmitter01.cydsn/debug.c ****     }
  78:..\..\BleWifiProject\BLE_Wireless_Power_Transmitter01.cydsn/debug.c **** 
  79:..\..\BleWifiProject\BLE_Wireless_Power_Transmitter01.cydsn/debug.c ****     for (/* Empty */; size != 0; --size)
  80:..\..\BleWifiProject\BLE_Wireless_Power_Transmitter01.cydsn/debug.c ****     {
  81:..\..\BleWifiProject\BLE_Wireless_Power_Transmitter01.cydsn/debug.c ****         UART_DEB_UartPutChar(*buffer++);
  82:..\..\BleWifiProject\BLE_Wireless_Power_Transmitter01.cydsn/debug.c ****         ++nChars;
  83:..\..\BleWifiProject\BLE_Wireless_Power_Transmitter01.cydsn/debug.c ****     }
  84:..\..\BleWifiProject\BLE_Wireless_Power_Transmitter01.cydsn/debug.c **** 
  85:..\..\BleWifiProject\BLE_Wireless_Power_Transmitter01.cydsn/debug.c ****     return (nChars);
  86:..\..\BleWifiProject\BLE_Wireless_Power_Transmitter01.cydsn/debug.c **** }
  87:..\..\BleWifiProject\BLE_Wireless_Power_Transmitter01.cydsn/debug.c **** 
ARM GAS  C:\Users\Midori\AppData\Local\Temp\ccrWBQRK.s 			page 3


  88:..\..\BleWifiProject\BLE_Wireless_Power_Transmitter01.cydsn/debug.c **** #else  /* (__GNUC__)  GCC */
  89:..\..\BleWifiProject\BLE_Wireless_Power_Transmitter01.cydsn/debug.c **** 
  90:..\..\BleWifiProject\BLE_Wireless_Power_Transmitter01.cydsn/debug.c **** /* For GCC compiler revise _write() function for printf functionality */
  91:..\..\BleWifiProject\BLE_Wireless_Power_Transmitter01.cydsn/debug.c **** int _write(int file, char *ptr, int len)
  92:..\..\BleWifiProject\BLE_Wireless_Power_Transmitter01.cydsn/debug.c **** {
  28              		.loc 1 92 0
  29              		.cfi_startproc
  30 0000 80B5     		push	{r7, lr}
  31              		.cfi_def_cfa_offset 8
  32              		.cfi_offset 7, -8
  33              		.cfi_offset 14, -4
  34 0002 86B0     		sub	sp, sp, #24
  35              		.cfi_def_cfa_offset 32
  36 0004 00AF     		add	r7, sp, #0
  37              		.cfi_def_cfa_register 7
  38 0006 F860     		str	r0, [r7, #12]
  39 0008 B960     		str	r1, [r7, #8]
  40 000a 7A60     		str	r2, [r7, #4]
  93:..\..\BleWifiProject\BLE_Wireless_Power_Transmitter01.cydsn/debug.c ****     int i;
  94:..\..\BleWifiProject\BLE_Wireless_Power_Transmitter01.cydsn/debug.c ****     file = file;
  95:..\..\BleWifiProject\BLE_Wireless_Power_Transmitter01.cydsn/debug.c ****     for (i = 0; i < len; i++)
  41              		.loc 1 95 0
  42 000c 0023     		mov	r3, #0
  43 000e 7B61     		str	r3, [r7, #20]
  44 0010 09E0     		b	.L2
  45              	.L3:
  46              	.LBB2:
  96:..\..\BleWifiProject\BLE_Wireless_Power_Transmitter01.cydsn/debug.c ****     {
  97:..\..\BleWifiProject\BLE_Wireless_Power_Transmitter01.cydsn/debug.c ****         UART_DEB_UartPutChar(*ptr++);
  47              		.loc 1 97 0 discriminator 3
  48 0012 BB68     		ldr	r3, [r7, #8]
  49 0014 5A1C     		add	r2, r3, #1
  50 0016 BA60     		str	r2, [r7, #8]
  51 0018 1B78     		ldrb	r3, [r3]
  52 001a 181C     		mov	r0, r3
  53 001c FFF7FEFF 		bl	UART_DEB_UartPutChar
  54              	.LBE2:
  95:..\..\BleWifiProject\BLE_Wireless_Power_Transmitter01.cydsn/debug.c ****     {
  55              		.loc 1 95 0 discriminator 3
  56 0020 7B69     		ldr	r3, [r7, #20]
  57 0022 0133     		add	r3, r3, #1
  58 0024 7B61     		str	r3, [r7, #20]
  59              	.L2:
  95:..\..\BleWifiProject\BLE_Wireless_Power_Transmitter01.cydsn/debug.c ****     {
  60              		.loc 1 95 0 is_stmt 0 discriminator 1
  61 0026 7A69     		ldr	r2, [r7, #20]
  62 0028 7B68     		ldr	r3, [r7, #4]
  63 002a 9A42     		cmp	r2, r3
  64 002c F1DB     		blt	.L3
  98:..\..\BleWifiProject\BLE_Wireless_Power_Transmitter01.cydsn/debug.c ****     }
  99:..\..\BleWifiProject\BLE_Wireless_Power_Transmitter01.cydsn/debug.c ****     return len;
  65              		.loc 1 99 0 is_stmt 1
  66 002e 7B68     		ldr	r3, [r7, #4]
 100:..\..\BleWifiProject\BLE_Wireless_Power_Transmitter01.cydsn/debug.c **** }
  67              		.loc 1 100 0
  68 0030 181C     		mov	r0, r3
  69 0032 BD46     		mov	sp, r7
ARM GAS  C:\Users\Midori\AppData\Local\Temp\ccrWBQRK.s 			page 4


  70 0034 06B0     		add	sp, sp, #24
  71              		@ sp needed
  72 0036 80BD     		pop	{r7, pc}
  73              		.cfi_endproc
  74              	.LFE37:
  75              		.size	_write, .-_write
  76              		.section	.rodata
  77              		.align	2
  78              	.LC0:
  79 0000 25322E32 		.ascii	"%2.2x \000"
  79      782000
  80 0007 00       		.align	2
  81              	.LC2:
  82 0008 0D00     		.ascii	"\015\000"
  83 000a 0000     		.section	.text.ShowValue,"ax",%progbits
  84              		.align	2
  85              		.global	ShowValue
  86              		.code	16
  87              		.thumb_func
  88              		.type	ShowValue, %function
  89              	ShowValue:
  90              	.LFB38:
 101:..\..\BleWifiProject\BLE_Wireless_Power_Transmitter01.cydsn/debug.c **** 
 102:..\..\BleWifiProject\BLE_Wireless_Power_Transmitter01.cydsn/debug.c **** 
 103:..\..\BleWifiProject\BLE_Wireless_Power_Transmitter01.cydsn/debug.c **** #endif  /* (__ARMCC_VERSION) */   
 104:..\..\BleWifiProject\BLE_Wireless_Power_Transmitter01.cydsn/debug.c **** 
 105:..\..\BleWifiProject\BLE_Wireless_Power_Transmitter01.cydsn/debug.c **** void ShowValue(CYBLE_GATT_VALUE_T *value, uint8 valueType)
 106:..\..\BleWifiProject\BLE_Wireless_Power_Transmitter01.cydsn/debug.c **** {
  91              		.loc 1 106 0
  92              		.cfi_startproc
  93 0000 80B5     		push	{r7, lr}
  94              		.cfi_def_cfa_offset 8
  95              		.cfi_offset 7, -8
  96              		.cfi_offset 14, -4
  97 0002 84B0     		sub	sp, sp, #16
  98              		.cfi_def_cfa_offset 24
  99 0004 00AF     		add	r7, sp, #0
 100              		.cfi_def_cfa_register 7
 101 0006 7860     		str	r0, [r7, #4]
 102 0008 0A1C     		mov	r2, r1
 103 000a FB1C     		add	r3, r7, #3
 104 000c 1A70     		strb	r2, [r3]
 107:..\..\BleWifiProject\BLE_Wireless_Power_Transmitter01.cydsn/debug.c ****     int16 i;
 108:..\..\BleWifiProject\BLE_Wireless_Power_Transmitter01.cydsn/debug.c ****     
 109:..\..\BleWifiProject\BLE_Wireless_Power_Transmitter01.cydsn/debug.c ****     for(i = 0; i < value->len; i++)
 105              		.loc 1 109 0
 106 000e 0E23     		mov	r3, #14
 107 0010 FB18     		add	r3, r7, r3
 108 0012 0022     		mov	r2, #0
 109 0014 1A80     		strh	r2, [r3]
 110 0016 26E0     		b	.L6
 111              	.L9:
 110:..\..\BleWifiProject\BLE_Wireless_Power_Transmitter01.cydsn/debug.c ****     {
 111:..\..\BleWifiProject\BLE_Wireless_Power_Transmitter01.cydsn/debug.c ****         if(valueType == 0u)
 112              		.loc 1 111 0
 113 0018 FB1C     		add	r3, r7, #3
 114 001a 1B78     		ldrb	r3, [r3]
ARM GAS  C:\Users\Midori\AppData\Local\Temp\ccrWBQRK.s 			page 5


 115 001c 002B     		cmp	r3, #0
 116 001e 0ED1     		bne	.L7
 112:..\..\BleWifiProject\BLE_Wireless_Power_Transmitter01.cydsn/debug.c ****         {
 113:..\..\BleWifiProject\BLE_Wireless_Power_Transmitter01.cydsn/debug.c ****             DBG_PRINTF("%2.2x ", value->val[i]);
 117              		.loc 1 113 0
 118 0020 7B68     		ldr	r3, [r7, #4]
 119 0022 1A68     		ldr	r2, [r3]
 120 0024 0E23     		mov	r3, #14
 121 0026 FB18     		add	r3, r7, r3
 122 0028 0021     		mov	r1, #0
 123 002a 5B5E     		ldrsh	r3, [r3, r1]
 124 002c D318     		add	r3, r2, r3
 125 002e 1B78     		ldrb	r3, [r3]
 126 0030 1A1C     		mov	r2, r3
 127 0032 144B     		ldr	r3, .L10
 128 0034 181C     		mov	r0, r3
 129 0036 111C     		mov	r1, r2
 130 0038 FFF7FEFF 		bl	printf
 131 003c 0AE0     		b	.L8
 132              	.L7:
 114:..\..\BleWifiProject\BLE_Wireless_Power_Transmitter01.cydsn/debug.c ****         }
 115:..\..\BleWifiProject\BLE_Wireless_Power_Transmitter01.cydsn/debug.c ****         else
 116:..\..\BleWifiProject\BLE_Wireless_Power_Transmitter01.cydsn/debug.c ****         {
 117:..\..\BleWifiProject\BLE_Wireless_Power_Transmitter01.cydsn/debug.c ****             DBG_PRINTF("%c", (char8)value->val[i]);
 133              		.loc 1 117 0
 134 003e 7B68     		ldr	r3, [r7, #4]
 135 0040 1A68     		ldr	r2, [r3]
 136 0042 0E23     		mov	r3, #14
 137 0044 FB18     		add	r3, r7, r3
 138 0046 0021     		mov	r1, #0
 139 0048 5B5E     		ldrsh	r3, [r3, r1]
 140 004a D318     		add	r3, r2, r3
 141 004c 1B78     		ldrb	r3, [r3]
 142 004e 181C     		mov	r0, r3
 143 0050 FFF7FEFF 		bl	putchar
 144              	.L8:
 109:..\..\BleWifiProject\BLE_Wireless_Power_Transmitter01.cydsn/debug.c ****     {
 145              		.loc 1 109 0 discriminator 2
 146 0054 0E23     		mov	r3, #14
 147 0056 FB18     		add	r3, r7, r3
 148 0058 1B88     		ldrh	r3, [r3]
 149 005a 9BB2     		uxth	r3, r3
 150 005c 0133     		add	r3, r3, #1
 151 005e 9AB2     		uxth	r2, r3
 152 0060 0E23     		mov	r3, #14
 153 0062 FB18     		add	r3, r7, r3
 154 0064 1A80     		strh	r2, [r3]
 155              	.L6:
 109:..\..\BleWifiProject\BLE_Wireless_Power_Transmitter01.cydsn/debug.c ****     {
 156              		.loc 1 109 0 is_stmt 0 discriminator 1
 157 0066 0E23     		mov	r3, #14
 158 0068 FB18     		add	r3, r7, r3
 159 006a 0022     		mov	r2, #0
 160 006c 9B5E     		ldrsh	r3, [r3, r2]
 161 006e 7A68     		ldr	r2, [r7, #4]
 162 0070 9288     		ldrh	r2, [r2, #4]
 163 0072 9342     		cmp	r3, r2
ARM GAS  C:\Users\Midori\AppData\Local\Temp\ccrWBQRK.s 			page 6


 164 0074 D0DB     		blt	.L9
 118:..\..\BleWifiProject\BLE_Wireless_Power_Transmitter01.cydsn/debug.c ****         }
 119:..\..\BleWifiProject\BLE_Wireless_Power_Transmitter01.cydsn/debug.c ****     }
 120:..\..\BleWifiProject\BLE_Wireless_Power_Transmitter01.cydsn/debug.c ****     DBG_PRINTF("\r\n");
 165              		.loc 1 120 0 is_stmt 1
 166 0076 044B     		ldr	r3, .L10+4
 167 0078 181C     		mov	r0, r3
 168 007a FFF7FEFF 		bl	puts
 121:..\..\BleWifiProject\BLE_Wireless_Power_Transmitter01.cydsn/debug.c **** }
 169              		.loc 1 121 0
 170 007e BD46     		mov	sp, r7
 171 0080 04B0     		add	sp, sp, #16
 172              		@ sp needed
 173 0082 80BD     		pop	{r7, pc}
 174              	.L11:
 175              		.align	2
 176              	.L10:
 177 0084 00000000 		.word	.LC0
 178 0088 08000000 		.word	.LC2
 179              		.cfi_endproc
 180              	.LFE38:
 181              		.size	ShowValue, .-ShowValue
 182              		.section	.text.Set32ByPtr,"ax",%progbits
 183              		.align	2
 184              		.global	Set32ByPtr
 185              		.code	16
 186              		.thumb_func
 187              		.type	Set32ByPtr, %function
 188              	Set32ByPtr:
 189              	.LFB39:
 122:..\..\BleWifiProject\BLE_Wireless_Power_Transmitter01.cydsn/debug.c **** 
 123:..\..\BleWifiProject\BLE_Wireless_Power_Transmitter01.cydsn/debug.c **** 
 124:..\..\BleWifiProject\BLE_Wireless_Power_Transmitter01.cydsn/debug.c **** void Set32ByPtr(uint8 ptr[], uint32 value)
 125:..\..\BleWifiProject\BLE_Wireless_Power_Transmitter01.cydsn/debug.c **** {
 190              		.loc 1 125 0
 191              		.cfi_startproc
 192 0000 80B5     		push	{r7, lr}
 193              		.cfi_def_cfa_offset 8
 194              		.cfi_offset 7, -8
 195              		.cfi_offset 14, -4
 196 0002 82B0     		sub	sp, sp, #8
 197              		.cfi_def_cfa_offset 16
 198 0004 00AF     		add	r7, sp, #0
 199              		.cfi_def_cfa_register 7
 200 0006 7860     		str	r0, [r7, #4]
 201 0008 3960     		str	r1, [r7]
 126:..\..\BleWifiProject\BLE_Wireless_Power_Transmitter01.cydsn/debug.c ****     ptr[0u] = (uint8) value;
 202              		.loc 1 126 0
 203 000a 3B68     		ldr	r3, [r7]
 204 000c DAB2     		uxtb	r2, r3
 205 000e 7B68     		ldr	r3, [r7, #4]
 206 0010 1A70     		strb	r2, [r3]
 127:..\..\BleWifiProject\BLE_Wireless_Power_Transmitter01.cydsn/debug.c ****     ptr[1u] = (uint8) (value >> 8u);    
 207              		.loc 1 127 0
 208 0012 7B68     		ldr	r3, [r7, #4]
 209 0014 0133     		add	r3, r3, #1
 210 0016 3A68     		ldr	r2, [r7]
ARM GAS  C:\Users\Midori\AppData\Local\Temp\ccrWBQRK.s 			page 7


 211 0018 120A     		lsr	r2, r2, #8
 212 001a D2B2     		uxtb	r2, r2
 213 001c 1A70     		strb	r2, [r3]
 128:..\..\BleWifiProject\BLE_Wireless_Power_Transmitter01.cydsn/debug.c ****     ptr[2u] = (uint8) (value >> 16u);    
 214              		.loc 1 128 0
 215 001e 7B68     		ldr	r3, [r7, #4]
 216 0020 0233     		add	r3, r3, #2
 217 0022 3A68     		ldr	r2, [r7]
 218 0024 120C     		lsr	r2, r2, #16
 219 0026 D2B2     		uxtb	r2, r2
 220 0028 1A70     		strb	r2, [r3]
 129:..\..\BleWifiProject\BLE_Wireless_Power_Transmitter01.cydsn/debug.c ****     ptr[3u] = (uint8) (value >> 24u);
 221              		.loc 1 129 0
 222 002a 7B68     		ldr	r3, [r7, #4]
 223 002c 0333     		add	r3, r3, #3
 224 002e 3A68     		ldr	r2, [r7]
 225 0030 120E     		lsr	r2, r2, #24
 226 0032 D2B2     		uxtb	r2, r2
 227 0034 1A70     		strb	r2, [r3]
 130:..\..\BleWifiProject\BLE_Wireless_Power_Transmitter01.cydsn/debug.c **** }
 228              		.loc 1 130 0
 229 0036 BD46     		mov	sp, r7
 230 0038 02B0     		add	sp, sp, #8
 231              		@ sp needed
 232 003a 80BD     		pop	{r7, pc}
 233              		.cfi_endproc
 234              	.LFE39:
 235              		.size	Set32ByPtr, .-Set32ByPtr
 236              		.section	.text.Get32ByPtr,"ax",%progbits
 237              		.align	2
 238              		.global	Get32ByPtr
 239              		.code	16
 240              		.thumb_func
 241              		.type	Get32ByPtr, %function
 242              	Get32ByPtr:
 243              	.LFB40:
 131:..\..\BleWifiProject\BLE_Wireless_Power_Transmitter01.cydsn/debug.c **** 
 132:..\..\BleWifiProject\BLE_Wireless_Power_Transmitter01.cydsn/debug.c **** uint32 Get32ByPtr(uint8 ptr[])
 133:..\..\BleWifiProject\BLE_Wireless_Power_Transmitter01.cydsn/debug.c **** {
 244              		.loc 1 133 0
 245              		.cfi_startproc
 246 0000 80B5     		push	{r7, lr}
 247              		.cfi_def_cfa_offset 8
 248              		.cfi_offset 7, -8
 249              		.cfi_offset 14, -4
 250 0002 82B0     		sub	sp, sp, #8
 251              		.cfi_def_cfa_offset 16
 252 0004 00AF     		add	r7, sp, #0
 253              		.cfi_def_cfa_register 7
 254 0006 7860     		str	r0, [r7, #4]
 134:..\..\BleWifiProject\BLE_Wireless_Power_Transmitter01.cydsn/debug.c ****     return ((uint32) ptr[0u] | ((uint32) ptr[1u] << 8u) | ((uint32) ptr[2u] << 16u) | ((uint32) ptr
 255              		.loc 1 134 0
 256 0008 7B68     		ldr	r3, [r7, #4]
 257 000a 1B78     		ldrb	r3, [r3]
 258 000c 1A1C     		mov	r2, r3
 259 000e 7B68     		ldr	r3, [r7, #4]
 260 0010 0133     		add	r3, r3, #1
ARM GAS  C:\Users\Midori\AppData\Local\Temp\ccrWBQRK.s 			page 8


 261 0012 1B78     		ldrb	r3, [r3]
 262 0014 1B02     		lsl	r3, r3, #8
 263 0016 1A43     		orr	r2, r3
 264 0018 7B68     		ldr	r3, [r7, #4]
 265 001a 0233     		add	r3, r3, #2
 266 001c 1B78     		ldrb	r3, [r3]
 267 001e 1B04     		lsl	r3, r3, #16
 268 0020 1A43     		orr	r2, r3
 269 0022 7B68     		ldr	r3, [r7, #4]
 270 0024 0333     		add	r3, r3, #3
 271 0026 1B78     		ldrb	r3, [r3]
 272 0028 1B06     		lsl	r3, r3, #24
 273 002a 1343     		orr	r3, r2
 135:..\..\BleWifiProject\BLE_Wireless_Power_Transmitter01.cydsn/debug.c **** }
 274              		.loc 1 135 0
 275 002c 181C     		mov	r0, r3
 276 002e BD46     		mov	sp, r7
 277 0030 02B0     		add	sp, sp, #8
 278              		@ sp needed
 279 0032 80BD     		pop	{r7, pc}
 280              		.cfi_endproc
 281              	.LFE40:
 282              		.size	Get32ByPtr, .-Get32ByPtr
 283              		.section	.text.ShowError,"ax",%progbits
 284              		.align	2
 285              		.global	ShowError
 286              		.code	16
 287              		.thumb_func
 288              		.type	ShowError, %function
 289              	ShowError:
 290              	.LFB41:
 136:..\..\BleWifiProject\BLE_Wireless_Power_Transmitter01.cydsn/debug.c **** 
 137:..\..\BleWifiProject\BLE_Wireless_Power_Transmitter01.cydsn/debug.c **** /*******************************************************************************
 138:..\..\BleWifiProject\BLE_Wireless_Power_Transmitter01.cydsn/debug.c **** * Function Name: ShowError()
 139:..\..\BleWifiProject\BLE_Wireless_Power_Transmitter01.cydsn/debug.c **** ********************************************************************************
 140:..\..\BleWifiProject\BLE_Wireless_Power_Transmitter01.cydsn/debug.c **** *
 141:..\..\BleWifiProject\BLE_Wireless_Power_Transmitter01.cydsn/debug.c **** * Summary:
 142:..\..\BleWifiProject\BLE_Wireless_Power_Transmitter01.cydsn/debug.c **** *   Shows error condition: Turn On all leds - white colour will indicate error.
 143:..\..\BleWifiProject\BLE_Wireless_Power_Transmitter01.cydsn/debug.c **** *
 144:..\..\BleWifiProject\BLE_Wireless_Power_Transmitter01.cydsn/debug.c **** *******************************************************************************/
 145:..\..\BleWifiProject\BLE_Wireless_Power_Transmitter01.cydsn/debug.c **** void ShowError(void)
 146:..\..\BleWifiProject\BLE_Wireless_Power_Transmitter01.cydsn/debug.c **** {
 291              		.loc 1 146 0
 292              		.cfi_startproc
 293 0000 80B5     		push	{r7, lr}
 294              		.cfi_def_cfa_offset 8
 295              		.cfi_offset 7, -8
 296              		.cfi_offset 14, -4
 297 0002 00AF     		add	r7, sp, #0
 298              		.cfi_def_cfa_register 7
 147:..\..\BleWifiProject\BLE_Wireless_Power_Transmitter01.cydsn/debug.c **** //    Disconnect_LED_Write(LED_ON);
 148:..\..\BleWifiProject\BLE_Wireless_Power_Transmitter01.cydsn/debug.c **** //    Advertising_LED_Write(LED_ON);
 149:..\..\BleWifiProject\BLE_Wireless_Power_Transmitter01.cydsn/debug.c **** //    CapsLock_LED_Write(LED_ON);
 150:..\..\BleWifiProject\BLE_Wireless_Power_Transmitter01.cydsn/debug.c ****     /* Halt CPU in Debug mode */
 151:..\..\BleWifiProject\BLE_Wireless_Power_Transmitter01.cydsn/debug.c ****     CYASSERT(0u != 0u);
 299              		.loc 1 151 0
 300 0004 0020     		mov	r0, #0
ARM GAS  C:\Users\Midori\AppData\Local\Temp\ccrWBQRK.s 			page 9


 301 0006 FFF7FEFF 		bl	CyHalt
 152:..\..\BleWifiProject\BLE_Wireless_Power_Transmitter01.cydsn/debug.c **** }
 302              		.loc 1 152 0
 303 000a BD46     		mov	sp, r7
 304              		@ sp needed
 305 000c 80BD     		pop	{r7, pc}
 306              		.cfi_endproc
 307              	.LFE41:
 308              		.size	ShowError, .-ShowError
 309 000e C046     		.text
 310              	.Letext0:
 311              		.file 2 "Generated_Source\\PSoC4/cytypes.h"
 312              		.file 3 "Generated_Source\\PSoC4/BLE_StackGatt.h"