ARM GAS  C:\Users\Midori\AppData\Local\Temp\ccEpyPgP.s 			page 1


   1              		.cpu cortex-m0
   2              		.fpu softvfp
   3              		.eabi_attribute 20, 1
   4              		.eabi_attribute 21, 1
   5              		.eabi_attribute 23, 3
   6              		.eabi_attribute 24, 1
   7              		.eabi_attribute 25, 1
   8              		.eabi_attribute 26, 1
   9              		.eabi_attribute 30, 6
  10              		.eabi_attribute 34, 0
  11              		.eabi_attribute 18, 4
  12              		.code	16
  13              		.file	"BLE_CAR_Client.c"
  14              		.text
  15              	.Ltext0:
  16              		.cfi_sections	.debug_frame
  17              		.comm	ble_CAR_Server_found,1,1
  18              		.comm	Motor_Command,1,1
  19              		.comm	ble_CAR_Client_State,1,1
  20              		.comm	connHandle,2,4
  21              		.comm	apiResult,2,2
  22              		.comm	connectPeriphDevice,7,4
  23              		.section	.text.FilterScanResponsePackets,"ax",%progbits
  24              		.align	2
  25              		.global	FilterScanResponsePackets
  26              		.code	16
  27              		.thumb_func
  28              		.type	FilterScanResponsePackets, %function
  29              	FilterScanResponsePackets:
  30              	.LFB37:
  31              		.file 1 ".\\BLE_CAR_Client.c"
   1:.\BLE_CAR_Client.c **** /*******************************************************************************
   2:.\BLE_CAR_Client.c **** * File Name: BLE_CAR_Client.c
   3:.\BLE_CAR_Client.c **** *
   4:.\BLE_CAR_Client.c **** * Description:
   5:.\BLE_CAR_Client.c **** *  This is the source file to handle the BLE CAR Client States and functions
   6:.\BLE_CAR_Client.c **** *
   7:.\BLE_CAR_Client.c **** ********************************************************************************
   8:.\BLE_CAR_Client.c **** * Copyright 2015, Cypress Semiconductor Corporation. All rights reserved.
   9:.\BLE_CAR_Client.c **** * This software is owned by Cypress Semiconductor Corporation and is protected
  10:.\BLE_CAR_Client.c **** * by and subject to worldwide patent and copyright laws and treaties.
  11:.\BLE_CAR_Client.c **** * Therefore, you may use this software only as provided in the license agreement
  12:.\BLE_CAR_Client.c **** * accompanying the software package from which you obtained this software.
  13:.\BLE_CAR_Client.c **** * CYPRESS AND ITS SUPPLIERS MAKE NO WARRANTY OF ANY KIND, EXPRESS OR IMPLIED,
  14:.\BLE_CAR_Client.c **** * WITH REGARD TO THIS SOFTWARE, INCLUDING, BUT NOT LIMITED TO, NONINFRINGEMENT,
  15:.\BLE_CAR_Client.c **** * IMPLIED WARRANTIES OF MERCHANTABILITY AND FITNESS FOR A PARTICULAR PURPOSE.
  16:.\BLE_CAR_Client.c **** *******************************************************************************/
  17:.\BLE_CAR_Client.c **** 
  18:.\BLE_CAR_Client.c **** #include "BLE_CAR_Client.h"
  19:.\BLE_CAR_Client.c **** #include "LED.h"
  20:.\BLE_CAR_Client.c **** #include "Motor_Control.h"
  21:.\BLE_CAR_Client.c **** 
  22:.\BLE_CAR_Client.c **** 
  23:.\BLE_CAR_Client.c **** /* 'connHandle' is a varibale of type 'CYBLE_CONN_HANDLE_T' (defined in 
  24:.\BLE_CAR_Client.c **** * BLE_StackGatt.h) and is used to store the connection handle parameters after
  25:.\BLE_CAR_Client.c **** * connecting with the peripheral device. */
  26:.\BLE_CAR_Client.c **** CYBLE_CONN_HANDLE_T			connHandle;
ARM GAS  C:\Users\Midori\AppData\Local\Temp\ccEpyPgP.s 			page 2


  27:.\BLE_CAR_Client.c **** 
  28:.\BLE_CAR_Client.c **** 	/* 'apiResult' is a varibale of type 'CYBLE_API_RESULT_T' (defined in 
  29:.\BLE_CAR_Client.c **** * BLE_StackTypes.h) and is used to store the return value from BLE APIs. */
  30:.\BLE_CAR_Client.c **** 	
  31:.\BLE_CAR_Client.c **** CYBLE_API_RESULT_T 		apiResult;
  32:.\BLE_CAR_Client.c **** 	
  33:.\BLE_CAR_Client.c **** /* 'connectPeriphDevice' is a varibale of type 'CYBLE_GAP_BD_ADDR_T' (defined in 
  34:.\BLE_CAR_Client.c **** * BLE_StackGap.h) and is used to store address of the connected device. */
  35:.\BLE_CAR_Client.c **** CYBLE_GAP_BD_ADDR_T connectPeriphDevice;
  36:.\BLE_CAR_Client.c **** 
  37:.\BLE_CAR_Client.c **** /*******************************************************************************
  38:.\BLE_CAR_Client.c **** * Function Name: FilterScanResponsePackets
  39:.\BLE_CAR_Client.c **** ********************************************************************************
  40:.\BLE_CAR_Client.c **** * Summary:
  41:.\BLE_CAR_Client.c **** *        Function that meets the requirements of the Server (Accelerometer). This
  42:.\BLE_CAR_Client.c **** *		function ensures that it connects only to the Server Project
  43:.\BLE_CAR_Client.c **** *
  44:.\BLE_CAR_Client.c **** * Parameters:
  45:.\BLE_CAR_Client.c **** *  scanReport: Advertisement report received by GAP Central
  46:.\BLE_CAR_Client.c **** *
  47:.\BLE_CAR_Client.c **** * Return:
  48:.\BLE_CAR_Client.c **** *  void
  49:.\BLE_CAR_Client.c **** *
  50:.\BLE_CAR_Client.c **** *******************************************************************************/
  51:.\BLE_CAR_Client.c **** 
  52:.\BLE_CAR_Client.c **** void FilterScanResponsePackets(CYBLE_GAPC_ADV_REPORT_T* scanReport)
  53:.\BLE_CAR_Client.c **** {
  32              		.loc 1 53 0
  33              		.cfi_startproc
  34 0000 80B5     		push	{r7, lr}
  35              		.cfi_def_cfa_offset 8
  36              		.cfi_offset 7, -8
  37              		.cfi_offset 14, -4
  38 0002 82B0     		sub	sp, sp, #8
  39              		.cfi_def_cfa_offset 16
  40 0004 00AF     		add	r7, sp, #0
  41              		.cfi_def_cfa_register 7
  42 0006 7860     		str	r0, [r7, #4]
  54:.\BLE_CAR_Client.c **** 
  55:.\BLE_CAR_Client.c **** 	if(scanReport->data[1] == MANUFACTURER_SPECIFIC_DATA && 
  43              		.loc 1 55 0
  44 0008 7B68     		ldr	r3, [r7, #4]
  45 000a DB68     		ldr	r3, [r3, #12]
  46 000c 0133     		add	r3, r3, #1
  47 000e 1B78     		ldrb	r3, [r3]
  48 0010 FF2B     		cmp	r3, #255
  49 0012 27D1     		bne	.L1
  56:.\BLE_CAR_Client.c **** 	scanReport->data[2] == COMPANY_LSB && 
  50              		.loc 1 56 0 discriminator 1
  51 0014 7B68     		ldr	r3, [r7, #4]
  52 0016 DB68     		ldr	r3, [r3, #12]
  53 0018 0233     		add	r3, r3, #2
  54 001a 1B78     		ldrb	r3, [r3]
  55:.\BLE_CAR_Client.c **** 	scanReport->data[2] == COMPANY_LSB && 
  55              		.loc 1 55 0 discriminator 1
  56 001c 312B     		cmp	r3, #49
  57 001e 21D1     		bne	.L1
ARM GAS  C:\Users\Midori\AppData\Local\Temp\ccEpyPgP.s 			page 3


  57:.\BLE_CAR_Client.c **** 	scanReport->data[3] == COMPANY_MSB && 
  58              		.loc 1 57 0
  59 0020 7B68     		ldr	r3, [r7, #4]
  60 0022 DB68     		ldr	r3, [r3, #12]
  61 0024 0333     		add	r3, r3, #3
  62 0026 1B78     		ldrb	r3, [r3]
  56:.\BLE_CAR_Client.c **** 	scanReport->data[2] == COMPANY_LSB && 
  63              		.loc 1 56 0
  64 0028 012B     		cmp	r3, #1
  65 002a 1BD1     		bne	.L1
  58:.\BLE_CAR_Client.c **** 	scanReport->data[4] == MAN_SPEC_DATA_LSB && scanReport->data[5] == MAN_SPEC_DATA_MSB)
  66              		.loc 1 58 0
  67 002c 7B68     		ldr	r3, [r7, #4]
  68 002e DB68     		ldr	r3, [r3, #12]
  69 0030 0433     		add	r3, r3, #4
  70 0032 1B78     		ldrb	r3, [r3]
  57:.\BLE_CAR_Client.c **** 	scanReport->data[3] == COMPANY_MSB && 
  71              		.loc 1 57 0
  72 0034 342B     		cmp	r3, #52
  73 0036 15D1     		bne	.L1
  74              		.loc 1 58 0
  75 0038 7B68     		ldr	r3, [r7, #4]
  76 003a DB68     		ldr	r3, [r3, #12]
  77 003c 0533     		add	r3, r3, #5
  78 003e 1B78     		ldrb	r3, [r3]
  79 0040 122B     		cmp	r3, #18
  80 0042 0FD1     		bne	.L1
  59:.\BLE_CAR_Client.c **** 	{
  60:.\BLE_CAR_Client.c **** 		CyBle_GapcStopScan();
  81              		.loc 1 60 0
  82 0044 FFF7FEFF 		bl	CyBle_GapcStopScan
  61:.\BLE_CAR_Client.c **** 		
  62:.\BLE_CAR_Client.c **** 		memcpy(connectPeriphDevice.bdAddr, scanReport->peerBdAddr,
  83              		.loc 1 62 0
  84 0048 7B68     		ldr	r3, [r7, #4]
  85 004a 5B68     		ldr	r3, [r3, #4]
  86 004c 074A     		ldr	r2, .L3
  87 004e 111C     		mov	r1, r2
  88 0050 1A1C     		mov	r2, r3
  89 0052 0623     		mov	r3, #6
  90 0054 081C     		mov	r0, r1
  91 0056 111C     		mov	r1, r2
  92 0058 1A1C     		mov	r2, r3
  93 005a FFF7FEFF 		bl	memcpy
  63:.\BLE_CAR_Client.c ****                sizeof(connectPeriphDevice.bdAddr));
  64:.\BLE_CAR_Client.c **** 				
  65:.\BLE_CAR_Client.c **** 		ble_CAR_Server_found = TRUE;
  94              		.loc 1 65 0
  95 005e 044B     		ldr	r3, .L3+4
  96 0060 0122     		mov	r2, #1
  97 0062 1A70     		strb	r2, [r3]
  98              	.L1:
  66:.\BLE_CAR_Client.c **** 						
  67:.\BLE_CAR_Client.c **** 	}		
  68:.\BLE_CAR_Client.c **** }
  99              		.loc 1 68 0
 100 0064 BD46     		mov	sp, r7
ARM GAS  C:\Users\Midori\AppData\Local\Temp\ccEpyPgP.s 			page 4


 101 0066 02B0     		add	sp, sp, #8
 102              		@ sp needed
 103 0068 80BD     		pop	{r7, pc}
 104              	.L4:
 105 006a C046     		.align	2
 106              	.L3:
 107 006c 00000000 		.word	connectPeriphDevice
 108 0070 00000000 		.word	ble_CAR_Server_found
 109              		.cfi_endproc
 110              	.LFE37:
 111              		.size	FilterScanResponsePackets, .-FilterScanResponsePackets
 112              		.section	.text.ApplicationEventHandler,"ax",%progbits
 113              		.align	2
 114              		.global	ApplicationEventHandler
 115              		.code	16
 116              		.thumb_func
 117              		.type	ApplicationEventHandler, %function
 118              	ApplicationEventHandler:
 119              	.LFB38:
  69:.\BLE_CAR_Client.c **** 
  70:.\BLE_CAR_Client.c **** /*******************************************************************************
  71:.\BLE_CAR_Client.c **** * Function Name: ApplicationEventHandler
  72:.\BLE_CAR_Client.c **** ********************************************************************************
  73:.\BLE_CAR_Client.c **** * Summary:
  74:.\BLE_CAR_Client.c **** *        Call back event function to handle various events from BLE stack
  75:.\BLE_CAR_Client.c **** *
  76:.\BLE_CAR_Client.c **** * Parameters:
  77:.\BLE_CAR_Client.c **** *  event:		event returned
  78:.\BLE_CAR_Client.c **** *  eventParam:	link to value of the event parameter returned
  79:.\BLE_CAR_Client.c **** *
  80:.\BLE_CAR_Client.c **** * Return:
  81:.\BLE_CAR_Client.c **** *  void
  82:.\BLE_CAR_Client.c **** *
  83:.\BLE_CAR_Client.c **** *******************************************************************************/
  84:.\BLE_CAR_Client.c **** 
  85:.\BLE_CAR_Client.c **** void ApplicationEventHandler(uint32 event, void *eventparam)
  86:.\BLE_CAR_Client.c **** {
 120              		.loc 1 86 0
 121              		.cfi_startproc
 122 0000 80B5     		push	{r7, lr}
 123              		.cfi_def_cfa_offset 8
 124              		.cfi_offset 7, -8
 125              		.cfi_offset 14, -4
 126 0002 84B0     		sub	sp, sp, #16
 127              		.cfi_def_cfa_offset 24
 128 0004 00AF     		add	r7, sp, #0
 129              		.cfi_def_cfa_register 7
 130 0006 7860     		str	r0, [r7, #4]
 131 0008 3960     		str	r1, [r7]
  87:.\BLE_CAR_Client.c **** 	
  88:.\BLE_CAR_Client.c **** 	switch(event)
 132              		.loc 1 88 0
 133 000a 7B68     		ldr	r3, [r7, #4]
 134 000c 2B2B     		cmp	r3, #43
 135 000e 49D0     		beq	.L16
 136 0010 06D8     		bhi	.L8
 137 0012 202B     		cmp	r3, #32
ARM GAS  C:\Users\Midori\AppData\Local\Temp\ccEpyPgP.s 			page 5


 138 0014 0BD0     		beq	.L9
 139 0016 282B     		cmp	r3, #40
 140 0018 27D0     		beq	.L10
 141 001a 012B     		cmp	r3, #1
 142 001c 44D0     		beq	.L17
  89:.\BLE_CAR_Client.c **** 	{
  90:.\BLE_CAR_Client.c **** 		case CYBLE_EVT_STACK_ON:
  91:.\BLE_CAR_Client.c **** 			break;
  92:.\BLE_CAR_Client.c **** 		
  93:.\BLE_CAR_Client.c **** 		case CYBLE_EVT_GAPC_SCAN_START_STOP:
  94:.\BLE_CAR_Client.c **** 		break;
  95:.\BLE_CAR_Client.c **** 			
  96:.\BLE_CAR_Client.c **** 		case CYBLE_EVT_GAPC_SCAN_PROGRESS_RESULT:
  97:.\BLE_CAR_Client.c ****                 /*Check if device meets the Server requirements*/
  98:.\BLE_CAR_Client.c ****                 FilterScanResponsePackets((CYBLE_GAPC_ADV_REPORT_T *)eventparam);
  99:.\BLE_CAR_Client.c **** 		break;
 100:.\BLE_CAR_Client.c **** 			
 101:.\BLE_CAR_Client.c ****  		case CYBLE_EVT_GATT_CONNECT_IND:
 102:.\BLE_CAR_Client.c **** 			/* When the peripheral device is connected, store the connection handle.*/
 103:.\BLE_CAR_Client.c **** 			connHandle = *(CYBLE_CONN_HANDLE_T *)eventparam;
 104:.\BLE_CAR_Client.c **** 			break;
 105:.\BLE_CAR_Client.c **** 			
 106:.\BLE_CAR_Client.c **** 		case CYBLE_EVT_GATT_DISCONNECT_IND:
 107:.\BLE_CAR_Client.c **** 			RED_LED_ON();
 108:.\BLE_CAR_Client.c **** 			CyDelay(3000);
 109:.\BLE_CAR_Client.c **** 			break;
 110:.\BLE_CAR_Client.c **** 			
 111:.\BLE_CAR_Client.c **** 		case CYBLE_EVT_GAP_DEVICE_DISCONNECTED:
 112:.\BLE_CAR_Client.c **** 			RED_LED_ON();
 113:.\BLE_CAR_Client.c **** 
 114:.\BLE_CAR_Client.c **** 			break;		
 115:.\BLE_CAR_Client.c **** 		
 116:.\BLE_CAR_Client.c **** 		case CYBLE_EVT_GATTC_HANDLE_VALUE_NTF:
 117:.\BLE_CAR_Client.c **** 			/*Got data from server */
 118:.\BLE_CAR_Client.c **** 			{
 119:.\BLE_CAR_Client.c **** 	            CYBLE_GATTC_HANDLE_VALUE_NTF_PARAM_T *UART_RX_data = (CYBLE_GATTC_HANDLE_VALUE_NTF_PAR
 120:.\BLE_CAR_Client.c **** 				Motor_Command=*UART_RX_data->handleValPair.value.val;
 121:.\BLE_CAR_Client.c ****                 UART_UartPutChar(Motor_Command);
 122:.\BLE_CAR_Client.c ****                 UART_UartPutChar(0x0D);
 123:.\BLE_CAR_Client.c ****                 UART_UartPutChar('a');
 124:.\BLE_CAR_Client.c **** 				//UpdateMotor(Motor_Command);
 125:.\BLE_CAR_Client.c **** 				break;
 126:.\BLE_CAR_Client.c **** 			}
 127:.\BLE_CAR_Client.c **** 			
 128:.\BLE_CAR_Client.c **** 		default:
 129:.\BLE_CAR_Client.c **** 			break;
 143              		.loc 1 129 0
 144 001e 44E0     		b	.L5
 145              	.L8:
  88:.\BLE_CAR_Client.c **** 	{
 146              		.loc 1 88 0
 147 0020 422B     		cmp	r3, #66
 148 0022 14D0     		beq	.L12
 149 0024 522B     		cmp	r3, #82
 150 0026 2AD0     		beq	.L13
 151 0028 412B     		cmp	r3, #65
 152 002a 05D0     		beq	.L14
ARM GAS  C:\Users\Midori\AppData\Local\Temp\ccEpyPgP.s 			page 6


 153              		.loc 1 129 0
 154 002c 3DE0     		b	.L5
 155              	.L9:
  98:.\BLE_CAR_Client.c **** 		break;
 156              		.loc 1 98 0
 157 002e 3B68     		ldr	r3, [r7]
 158 0030 181C     		mov	r0, r3
 159 0032 FFF7FEFF 		bl	FilterScanResponsePackets
  99:.\BLE_CAR_Client.c **** 			
 160              		.loc 1 99 0
 161 0036 38E0     		b	.L5
 162              	.L14:
 103:.\BLE_CAR_Client.c **** 			break;
 163              		.loc 1 103 0
 164 0038 1D4A     		ldr	r2, .L18
 165 003a 3B68     		ldr	r3, [r7]
 166 003c 111C     		mov	r1, r2
 167 003e 1A1C     		mov	r2, r3
 168 0040 0223     		mov	r3, #2
 169 0042 081C     		mov	r0, r1
 170 0044 111C     		mov	r1, r2
 171 0046 1A1C     		mov	r2, r3
 172 0048 FFF7FEFF 		bl	memcpy
 104:.\BLE_CAR_Client.c **** 			
 173              		.loc 1 104 0
 174 004c 2DE0     		b	.L5
 175              	.L12:
 107:.\BLE_CAR_Client.c **** 			CyDelay(3000);
 176              		.loc 1 107 0
 177 004e 0020     		mov	r0, #0
 178 0050 FFF7FEFF 		bl	RED_LED_Write
 179 0054 0120     		mov	r0, #1
 180 0056 FFF7FEFF 		bl	GREEN_LED_Write
 181 005a 0120     		mov	r0, #1
 182 005c FFF7FEFF 		bl	BLUE_LED_Write
 108:.\BLE_CAR_Client.c **** 			break;
 183              		.loc 1 108 0
 184 0060 144B     		ldr	r3, .L18+4
 185 0062 181C     		mov	r0, r3
 186 0064 FFF7FEFF 		bl	CyDelay
 109:.\BLE_CAR_Client.c **** 			
 187              		.loc 1 109 0
 188 0068 1FE0     		b	.L5
 189              	.L10:
 112:.\BLE_CAR_Client.c **** 
 190              		.loc 1 112 0
 191 006a 0020     		mov	r0, #0
 192 006c FFF7FEFF 		bl	RED_LED_Write
 193 0070 0120     		mov	r0, #1
 194 0072 FFF7FEFF 		bl	GREEN_LED_Write
 195 0076 0120     		mov	r0, #1
 196 0078 FFF7FEFF 		bl	BLUE_LED_Write
 114:.\BLE_CAR_Client.c **** 		
 197              		.loc 1 114 0
 198 007c 15E0     		b	.L5
 199              	.L13:
 200              	.LBB2:
ARM GAS  C:\Users\Midori\AppData\Local\Temp\ccEpyPgP.s 			page 7


 119:.\BLE_CAR_Client.c **** 				Motor_Command=*UART_RX_data->handleValPair.value.val;
 201              		.loc 1 119 0
 202 007e 3B68     		ldr	r3, [r7]
 203 0080 FB60     		str	r3, [r7, #12]
 120:.\BLE_CAR_Client.c ****                 UART_UartPutChar(Motor_Command);
 204              		.loc 1 120 0
 205 0082 FB68     		ldr	r3, [r7, #12]
 206 0084 5B68     		ldr	r3, [r3, #4]
 207 0086 1A78     		ldrb	r2, [r3]
 208 0088 0B4B     		ldr	r3, .L18+8
 209 008a 1A70     		strb	r2, [r3]
 121:.\BLE_CAR_Client.c ****                 UART_UartPutChar(0x0D);
 210              		.loc 1 121 0
 211 008c 0A4B     		ldr	r3, .L18+8
 212 008e 1B78     		ldrb	r3, [r3]
 213 0090 181C     		mov	r0, r3
 214 0092 FFF7FEFF 		bl	UART_SpiUartWriteTxData
 122:.\BLE_CAR_Client.c ****                 UART_UartPutChar('a');
 215              		.loc 1 122 0
 216 0096 0D20     		mov	r0, #13
 217 0098 FFF7FEFF 		bl	UART_SpiUartWriteTxData
 123:.\BLE_CAR_Client.c **** 				//UpdateMotor(Motor_Command);
 218              		.loc 1 123 0
 219 009c 6120     		mov	r0, #97
 220 009e FFF7FEFF 		bl	UART_SpiUartWriteTxData
 125:.\BLE_CAR_Client.c **** 			}
 221              		.loc 1 125 0
 222 00a2 02E0     		b	.L5
 223              	.L16:
 224              	.LBE2:
  94:.\BLE_CAR_Client.c **** 			
 225              		.loc 1 94 0
 226 00a4 C046     		mov	r8, r8
 227 00a6 00E0     		b	.L5
 228              	.L17:
  91:.\BLE_CAR_Client.c **** 		
 229              		.loc 1 91 0
 230 00a8 C046     		mov	r8, r8
 231              	.L5:
 130:.\BLE_CAR_Client.c **** 	}
 131:.\BLE_CAR_Client.c **** }
 232              		.loc 1 131 0
 233 00aa BD46     		mov	sp, r7
 234 00ac 04B0     		add	sp, sp, #16
 235              		@ sp needed
 236 00ae 80BD     		pop	{r7, pc}
 237              	.L19:
 238              		.align	2
 239              	.L18:
 240 00b0 00000000 		.word	connHandle
 241 00b4 B80B0000 		.word	3000
 242 00b8 00000000 		.word	Motor_Command
 243              		.cfi_endproc
 244              	.LFE38:
 245              		.size	ApplicationEventHandler, .-ApplicationEventHandler
 246              		.section	.text.handle_ble_CAR_Client_State,"ax",%progbits
 247              		.align	2
ARM GAS  C:\Users\Midori\AppData\Local\Temp\ccEpyPgP.s 			page 8


 248              		.global	handle_ble_CAR_Client_State
 249              		.code	16
 250              		.thumb_func
 251              		.type	handle_ble_CAR_Client_State, %function
 252              	handle_ble_CAR_Client_State:
 253              	.LFB39:
 132:.\BLE_CAR_Client.c **** 
 133:.\BLE_CAR_Client.c **** /*******************************************************************************
 134:.\BLE_CAR_Client.c **** * Function Name: handle_ble_CAR_Client_State
 135:.\BLE_CAR_Client.c **** ********************************************************************************
 136:.\BLE_CAR_Client.c **** * Summary:
 137:.\BLE_CAR_Client.c **** *        Handles the various States of the Client
 138:.\BLE_CAR_Client.c **** *
 139:.\BLE_CAR_Client.c **** * Parameters:
 140:.\BLE_CAR_Client.c **** *  None
 141:.\BLE_CAR_Client.c **** *
 142:.\BLE_CAR_Client.c **** * Return:
 143:.\BLE_CAR_Client.c **** *  void
 144:.\BLE_CAR_Client.c **** *
 145:.\BLE_CAR_Client.c **** *******************************************************************************/
 146:.\BLE_CAR_Client.c **** 
 147:.\BLE_CAR_Client.c **** void handle_ble_CAR_Client_State(void)
 148:.\BLE_CAR_Client.c **** {
 254              		.loc 1 148 0
 255              		.cfi_startproc
 256 0000 80B5     		push	{r7, lr}
 257              		.cfi_def_cfa_offset 8
 258              		.cfi_offset 7, -8
 259              		.cfi_offset 14, -4
 260 0002 84B0     		sub	sp, sp, #16
 261              		.cfi_def_cfa_offset 24
 262 0004 00AF     		add	r7, sp, #0
 263              		.cfi_def_cfa_register 7
 149:.\BLE_CAR_Client.c **** 	
 150:.\BLE_CAR_Client.c **** 	if (CYBLE_STACK_STATE_BUSY == CyBle_GattGetBusStatus())
 264              		.loc 1 150 0
 265 0006 4E4B     		ldr	r3, .L39
 266 0008 1B78     		ldrb	r3, [r3]
 267 000a DBB2     		uxtb	r3, r3
 268 000c 012B     		cmp	r3, #1
 269 000e 00D1     		bne	.L21
 151:.\BLE_CAR_Client.c ****     {
 152:.\BLE_CAR_Client.c ****         /*If stack is busy wait for ready signal*/
 153:.\BLE_CAR_Client.c ****         return;
 270              		.loc 1 153 0
 271 0010 92E0     		b	.L20
 272              	.L21:
 154:.\BLE_CAR_Client.c ****     }
 155:.\BLE_CAR_Client.c **** 	
 156:.\BLE_CAR_Client.c **** 	switch(ble_CAR_Client_State)
 273              		.loc 1 156 0
 274 0012 4C4B     		ldr	r3, .L39+4
 275 0014 1B78     		ldrb	r3, [r3]
 276 0016 012B     		cmp	r3, #1
 277 0018 00D1     		bne	.LCB227
 278 001a 81E0     		b	.L24	@long jump
 279              	.LCB227:
ARM GAS  C:\Users\Midori\AppData\Local\Temp\ccEpyPgP.s 			page 9


 280 001c 02DC     		bgt	.L25
 281 001e 002B     		cmp	r3, #0
 282 0020 06D0     		beq	.L26
 157:.\BLE_CAR_Client.c **** 	{
 158:.\BLE_CAR_Client.c **** 		case BLE_CAR_CLIENT_STATE_NOT_READY:
 159:.\BLE_CAR_Client.c **** 		
 160:.\BLE_CAR_Client.c **** 			if(CYBLE_STATE_DISCONNECTED == CyBle_GetState())
 161:.\BLE_CAR_Client.c **** 			{
 162:.\BLE_CAR_Client.c **** 				if(ble_CAR_Server_found)
 163:.\BLE_CAR_Client.c **** 				{
 164:.\BLE_CAR_Client.c **** 					ble_CAR_Server_found = FALSE;
 165:.\BLE_CAR_Client.c **** 					apiResult = CyBle_GapcConnectDevice(&connectPeriphDevice);
 166:.\BLE_CAR_Client.c **** 					if(CYBLE_ERROR_OK != apiResult )
 167:.\BLE_CAR_Client.c **** 					{
 168:.\BLE_CAR_Client.c **** 						
 169:.\BLE_CAR_Client.c **** 					}
 170:.\BLE_CAR_Client.c **** 				}
 171:.\BLE_CAR_Client.c **** 				else
 172:.\BLE_CAR_Client.c **** 				{
 173:.\BLE_CAR_Client.c **** 					/*Start scanning*/    
 174:.\BLE_CAR_Client.c **** 				    if(CYBLE_STATE_DISCONNECTED == CyBle_GetState()) 
 175:.\BLE_CAR_Client.c **** 				    {
 176:.\BLE_CAR_Client.c **** 						BLUE_LED_ON(); /*Indicates scanning*/
 177:.\BLE_CAR_Client.c **** 				        if(CYBLE_ERROR_OK != CyBle_GapcStartScan(CYBLE_SCANNING_FAST))
 178:.\BLE_CAR_Client.c **** 				        {
 179:.\BLE_CAR_Client.c **** 				        }
 180:.\BLE_CAR_Client.c **** 				    }
 181:.\BLE_CAR_Client.c **** 				}
 182:.\BLE_CAR_Client.c **** 			}
 183:.\BLE_CAR_Client.c **** 			else if(CYBLE_STATE_SCANNING == CyBle_GetState())
 184:.\BLE_CAR_Client.c **** 			{
 185:.\BLE_CAR_Client.c **** 				
 186:.\BLE_CAR_Client.c **** 			}
 187:.\BLE_CAR_Client.c **** 			if(CYBLE_CLIENT_STATE_CONNECTED == CyBle_GetClientState())
 188:.\BLE_CAR_Client.c ****             {
 189:.\BLE_CAR_Client.c ****                 /*Discover all server DB items*/
 190:.\BLE_CAR_Client.c ****                 if(CYBLE_ERROR_OK != CyBle_GattcStartDiscovery(cyBle_connHandle))
 191:.\BLE_CAR_Client.c ****                 {
 192:.\BLE_CAR_Client.c ****                 }
 193:.\BLE_CAR_Client.c **** 				
 194:.\BLE_CAR_Client.c **** 				/* Enable notifications on the server side */
 195:.\BLE_CAR_Client.c **** 				uint8 value = CYBLE_CCCD_NOTIFICATION;
 196:.\BLE_CAR_Client.c **** 				CYBLE_GATTC_WRITE_CMD_REQ_T write_server;
 197:.\BLE_CAR_Client.c **** 				
 198:.\BLE_CAR_Client.c **** 				write_server.attrHandle = BLE_CAR_CCCD_HANDLE;
 199:.\BLE_CAR_Client.c **** 				write_server.value.len = 1;
 200:.\BLE_CAR_Client.c **** 				write_server.value.val = &value;
 201:.\BLE_CAR_Client.c **** 				
 202:.\BLE_CAR_Client.c **** 				CyBle_GattcWriteWithoutResponse(connHandle,&write_server);
 203:.\BLE_CAR_Client.c **** 				
 204:.\BLE_CAR_Client.c ****             }
 205:.\BLE_CAR_Client.c **** 			
 206:.\BLE_CAR_Client.c **** 			else if(CYBLE_CLIENT_STATE_DISCOVERED == CyBle_GetClientState())
 207:.\BLE_CAR_Client.c ****             {
 208:.\BLE_CAR_Client.c ****                 /*Configure the device on each connection*/
 209:.\BLE_CAR_Client.c ****                 ble_CAR_Client_State = BLE_CAR_CLIENT_STATE_CONFIG;
 210:.\BLE_CAR_Client.c ****             }
ARM GAS  C:\Users\Midori\AppData\Local\Temp\ccEpyPgP.s 			page 10


 211:.\BLE_CAR_Client.c **** 			
 212:.\BLE_CAR_Client.c **** 			break;
 213:.\BLE_CAR_Client.c **** 			
 214:.\BLE_CAR_Client.c **** 		        /*BLE component is ready to process new commands*/
 215:.\BLE_CAR_Client.c **** 			
 216:.\BLE_CAR_Client.c ****         case BLE_CAR_CLIENT_STATE_ACTIVE:
 217:.\BLE_CAR_Client.c **** 			GREEN_LED_ON();
 218:.\BLE_CAR_Client.c ****             /*Reset the application state, if BLE is not in discovered state*/
 219:.\BLE_CAR_Client.c ****             if(CYBLE_CLIENT_STATE_DISCOVERED != CyBle_GetClientState())
 220:.\BLE_CAR_Client.c ****             {
 221:.\BLE_CAR_Client.c ****                 ble_CAR_Client_State = BLE_CAR_CLIENT_STATE_NOT_READY;
 222:.\BLE_CAR_Client.c ****             }
 223:.\BLE_CAR_Client.c ****             
 224:.\BLE_CAR_Client.c ****             break;	
 225:.\BLE_CAR_Client.c **** 		
 226:.\BLE_CAR_Client.c **** 		        /*BLE component is processing current command*/
 227:.\BLE_CAR_Client.c ****         case BLE_CAR_CLIENT_STATE_BUSY:
 228:.\BLE_CAR_Client.c ****             /*BLE component is processing current command*/
 229:.\BLE_CAR_Client.c **** 
 230:.\BLE_CAR_Client.c ****             /*Reset the application state, if BLE is not in discovered state*/
 231:.\BLE_CAR_Client.c ****             if(CYBLE_CLIENT_STATE_DISCOVERED != CyBle_GetClientState())
 232:.\BLE_CAR_Client.c ****             {
 233:.\BLE_CAR_Client.c ****                 ble_CAR_Client_State = BLE_CAR_CLIENT_STATE_NOT_READY;
 234:.\BLE_CAR_Client.c ****             }
 235:.\BLE_CAR_Client.c ****             break;	
 236:.\BLE_CAR_Client.c **** 		
 237:.\BLE_CAR_Client.c **** 		        /*Connected device being configured for operation*/
 238:.\BLE_CAR_Client.c ****         case BLE_CAR_CLIENT_STATE_CONFIG:
 239:.\BLE_CAR_Client.c ****             /*Reset the application state, if BLE is not in discovered state*/
 240:.\BLE_CAR_Client.c ****             if(CYBLE_CLIENT_STATE_DISCOVERED != CyBle_GetClientState())
 241:.\BLE_CAR_Client.c ****             {
 242:.\BLE_CAR_Client.c ****                 ble_CAR_Client_State = BLE_CAR_CLIENT_STATE_NOT_READY;
 243:.\BLE_CAR_Client.c ****             }
 244:.\BLE_CAR_Client.c ****             else
 245:.\BLE_CAR_Client.c ****             {	
 246:.\BLE_CAR_Client.c ****                 /*Exit the state if all the configurations are complete*/
 247:.\BLE_CAR_Client.c ****                 ble_CAR_Client_State = BLE_CAR_CLIENT_STATE_ACTIVE;
 248:.\BLE_CAR_Client.c ****             }
 249:.\BLE_CAR_Client.c ****            break;	
 250:.\BLE_CAR_Client.c **** 			
 251:.\BLE_CAR_Client.c **** 		default:
 252:.\BLE_CAR_Client.c **** 			break;
 283              		.loc 1 252 0
 284 0022 89E0     		b	.L20
 285              	.L25:
 156:.\BLE_CAR_Client.c **** 	{
 286              		.loc 1 156 0
 287 0024 022B     		cmp	r3, #2
 288 0026 60D0     		beq	.L27
 289 0028 032B     		cmp	r3, #3
 290 002a 00D1     		bne	.LCB239
 291 002c 6FE0     		b	.L28	@long jump
 292              	.LCB239:
 293              		.loc 1 252 0
 294 002e 83E0     		b	.L20
 295              	.L26:
 160:.\BLE_CAR_Client.c **** 			{
ARM GAS  C:\Users\Midori\AppData\Local\Temp\ccEpyPgP.s 			page 11


 296              		.loc 1 160 0
 297 0030 454B     		ldr	r3, .L39+8
 298 0032 1B78     		ldrb	r3, [r3]
 299 0034 052B     		cmp	r3, #5
 300 0036 1FD1     		bne	.L31
 162:.\BLE_CAR_Client.c **** 				{
 301              		.loc 1 162 0
 302 0038 444B     		ldr	r3, .L39+12
 303 003a 1B78     		ldrb	r3, [r3]
 304 003c 002B     		cmp	r3, #0
 305 003e 0BD0     		beq	.L30
 164:.\BLE_CAR_Client.c **** 					apiResult = CyBle_GapcConnectDevice(&connectPeriphDevice);
 306              		.loc 1 164 0
 307 0040 424B     		ldr	r3, .L39+12
 308 0042 0022     		mov	r2, #0
 309 0044 1A70     		strb	r2, [r3]
 165:.\BLE_CAR_Client.c **** 					if(CYBLE_ERROR_OK != apiResult )
 310              		.loc 1 165 0
 311 0046 424B     		ldr	r3, .L39+16
 312 0048 181C     		mov	r0, r3
 313 004a FFF7FEFF 		bl	CyBle_GapcConnectDevice
 314 004e 031C     		mov	r3, r0
 315 0050 1A1C     		mov	r2, r3
 316 0052 404B     		ldr	r3, .L39+20
 317 0054 1A80     		strh	r2, [r3]
 318 0056 0FE0     		b	.L31
 319              	.L30:
 174:.\BLE_CAR_Client.c **** 				    {
 320              		.loc 1 174 0
 321 0058 3B4B     		ldr	r3, .L39+8
 322 005a 1B78     		ldrb	r3, [r3]
 323 005c 052B     		cmp	r3, #5
 324 005e 0BD1     		bne	.L31
 176:.\BLE_CAR_Client.c **** 				        if(CYBLE_ERROR_OK != CyBle_GapcStartScan(CYBLE_SCANNING_FAST))
 325              		.loc 1 176 0
 326 0060 0120     		mov	r0, #1
 327 0062 FFF7FEFF 		bl	RED_LED_Write
 328 0066 0120     		mov	r0, #1
 329 0068 FFF7FEFF 		bl	GREEN_LED_Write
 330 006c 0020     		mov	r0, #0
 331 006e FFF7FEFF 		bl	BLUE_LED_Write
 177:.\BLE_CAR_Client.c **** 				        {
 332              		.loc 1 177 0
 333 0072 0020     		mov	r0, #0
 334 0074 FFF7FEFF 		bl	CyBle_GapcStartScan
 335              	.L31:
 187:.\BLE_CAR_Client.c ****             {
 336              		.loc 1 187 0
 337 0078 374B     		ldr	r3, .L39+24
 338 007a 1B78     		ldrb	r3, [r3]
 339 007c 002B     		cmp	r3, #0
 340 007e 2BD1     		bne	.L32
 341              	.LBB3:
 190:.\BLE_CAR_Client.c ****                 {
 342              		.loc 1 190 0
 343 0080 364B     		ldr	r3, .L39+28
 344 0082 1A78     		ldrb	r2, [r3]
ARM GAS  C:\Users\Midori\AppData\Local\Temp\ccEpyPgP.s 			page 12


 345 0084 5B78     		ldrb	r3, [r3, #1]
 346 0086 1B02     		lsl	r3, r3, #8
 347 0088 1A43     		orr	r2, r3
 348 008a 0023     		mov	r3, #0
 349 008c 1204     		lsl	r2, r2, #16
 350 008e 120C     		lsr	r2, r2, #16
 351 0090 1B0C     		lsr	r3, r3, #16
 352 0092 1B04     		lsl	r3, r3, #16
 353 0094 1343     		orr	r3, r2
 354 0096 181C     		mov	r0, r3
 355 0098 FFF7FEFF 		bl	CyBle_GattcStartDiscovery
 195:.\BLE_CAR_Client.c **** 				CYBLE_GATTC_WRITE_CMD_REQ_T write_server;
 356              		.loc 1 195 0
 357 009c 0F23     		mov	r3, #15
 358 009e FB18     		add	r3, r7, r3
 359 00a0 0122     		mov	r2, #1
 360 00a2 1A70     		strb	r2, [r3]
 198:.\BLE_CAR_Client.c **** 				write_server.value.len = 1;
 361              		.loc 1 198 0
 362 00a4 3B1C     		mov	r3, r7
 363 00a6 0F22     		mov	r2, #15
 364 00a8 1A81     		strh	r2, [r3, #8]
 199:.\BLE_CAR_Client.c **** 				write_server.value.val = &value;
 365              		.loc 1 199 0
 366 00aa 3B1C     		mov	r3, r7
 367 00ac 0122     		mov	r2, #1
 368 00ae 9A80     		strh	r2, [r3, #4]
 200:.\BLE_CAR_Client.c **** 				
 369              		.loc 1 200 0
 370 00b0 3B1C     		mov	r3, r7
 371 00b2 0F22     		mov	r2, #15
 372 00b4 BA18     		add	r2, r7, r2
 373 00b6 1A60     		str	r2, [r3]
 202:.\BLE_CAR_Client.c **** 				
 374              		.loc 1 202 0
 375 00b8 294B     		ldr	r3, .L39+32
 376 00ba 391C     		mov	r1, r7
 377 00bc 1A78     		ldrb	r2, [r3]
 378 00be 5B78     		ldrb	r3, [r3, #1]
 379 00c0 1B02     		lsl	r3, r3, #8
 380 00c2 1A43     		orr	r2, r3
 381 00c4 0023     		mov	r3, #0
 382 00c6 1204     		lsl	r2, r2, #16
 383 00c8 120C     		lsr	r2, r2, #16
 384 00ca 1B0C     		lsr	r3, r3, #16
 385 00cc 1B04     		lsl	r3, r3, #16
 386 00ce 1343     		orr	r3, r2
 387 00d0 181C     		mov	r0, r3
 388 00d2 FFF7FEFF 		bl	CyBle_GattcWriteWithoutResponse
 389              	.LBE3:
 390 00d6 07E0     		b	.L33
 391              	.L32:
 206:.\BLE_CAR_Client.c ****             {
 392              		.loc 1 206 0
 393 00d8 1F4B     		ldr	r3, .L39+24
 394 00da 1B78     		ldrb	r3, [r3]
 395 00dc 052B     		cmp	r3, #5
ARM GAS  C:\Users\Midori\AppData\Local\Temp\ccEpyPgP.s 			page 13


 396 00de 03D1     		bne	.L33
 209:.\BLE_CAR_Client.c ****             }
 397              		.loc 1 209 0
 398 00e0 184B     		ldr	r3, .L39+4
 399 00e2 0122     		mov	r2, #1
 400 00e4 1A70     		strb	r2, [r3]
 212:.\BLE_CAR_Client.c **** 			
 401              		.loc 1 212 0
 402 00e6 27E0     		b	.L20
 403              	.L33:
 212:.\BLE_CAR_Client.c **** 			
 404              		.loc 1 212 0 is_stmt 0 discriminator 2
 405 00e8 26E0     		b	.L20
 406              	.L27:
 217:.\BLE_CAR_Client.c ****             /*Reset the application state, if BLE is not in discovered state*/
 407              		.loc 1 217 0 is_stmt 1
 408 00ea 0120     		mov	r0, #1
 409 00ec FFF7FEFF 		bl	RED_LED_Write
 410 00f0 0020     		mov	r0, #0
 411 00f2 FFF7FEFF 		bl	GREEN_LED_Write
 412 00f6 0120     		mov	r0, #1
 413 00f8 FFF7FEFF 		bl	BLUE_LED_Write
 219:.\BLE_CAR_Client.c ****             {
 414              		.loc 1 219 0
 415 00fc 164B     		ldr	r3, .L39+24
 416 00fe 1B78     		ldrb	r3, [r3]
 417 0100 052B     		cmp	r3, #5
 418 0102 03D0     		beq	.L34
 221:.\BLE_CAR_Client.c ****             }
 419              		.loc 1 221 0
 420 0104 0F4B     		ldr	r3, .L39+4
 421 0106 0022     		mov	r2, #0
 422 0108 1A70     		strb	r2, [r3]
 224:.\BLE_CAR_Client.c **** 		
 423              		.loc 1 224 0
 424 010a 15E0     		b	.L20
 425              	.L34:
 426 010c 14E0     		b	.L20
 427              	.L28:
 231:.\BLE_CAR_Client.c ****             {
 428              		.loc 1 231 0
 429 010e 124B     		ldr	r3, .L39+24
 430 0110 1B78     		ldrb	r3, [r3]
 431 0112 052B     		cmp	r3, #5
 432 0114 03D0     		beq	.L35
 233:.\BLE_CAR_Client.c ****             }
 433              		.loc 1 233 0
 434 0116 0B4B     		ldr	r3, .L39+4
 435 0118 0022     		mov	r2, #0
 436 011a 1A70     		strb	r2, [r3]
 235:.\BLE_CAR_Client.c **** 		
 437              		.loc 1 235 0
 438 011c 0CE0     		b	.L20
 439              	.L35:
 440 011e 0BE0     		b	.L20
 441              	.L24:
 240:.\BLE_CAR_Client.c ****             {
ARM GAS  C:\Users\Midori\AppData\Local\Temp\ccEpyPgP.s 			page 14


 442              		.loc 1 240 0
 443 0120 0D4B     		ldr	r3, .L39+24
 444 0122 1B78     		ldrb	r3, [r3]
 445 0124 052B     		cmp	r3, #5
 446 0126 03D0     		beq	.L36
 242:.\BLE_CAR_Client.c ****             }
 447              		.loc 1 242 0
 448 0128 064B     		ldr	r3, .L39+4
 449 012a 0022     		mov	r2, #0
 450 012c 1A70     		strb	r2, [r3]
 249:.\BLE_CAR_Client.c **** 			
 451              		.loc 1 249 0
 452 012e 02E0     		b	.L38
 453              	.L36:
 247:.\BLE_CAR_Client.c ****             }
 454              		.loc 1 247 0
 455 0130 044B     		ldr	r3, .L39+4
 456 0132 0222     		mov	r2, #2
 457 0134 1A70     		strb	r2, [r3]
 458              	.L38:
 249:.\BLE_CAR_Client.c **** 			
 459              		.loc 1 249 0
 460 0136 C046     		mov	r8, r8
 461              	.L20:
 253:.\BLE_CAR_Client.c **** 	}
 254:.\BLE_CAR_Client.c **** 	
 255:.\BLE_CAR_Client.c **** }
 462              		.loc 1 255 0
 463 0138 BD46     		mov	sp, r7
 464 013a 04B0     		add	sp, sp, #16
 465              		@ sp needed
 466 013c 80BD     		pop	{r7, pc}
 467              	.L40:
 468 013e C046     		.align	2
 469              	.L39:
 470 0140 00000000 		.word	cyBle_busyStatus
 471 0144 00000000 		.word	ble_CAR_Client_State
 472 0148 00000000 		.word	cyBle_state
 473 014c 00000000 		.word	ble_CAR_Server_found
 474 0150 00000000 		.word	connectPeriphDevice
 475 0154 00000000 		.word	apiResult
 476 0158 00000000 		.word	cyBle_clientState
 477 015c 00000000 		.word	cyBle_connHandle
 478 0160 00000000 		.word	connHandle
 479              		.cfi_endproc
 480              	.LFE39:
 481              		.size	handle_ble_CAR_Client_State, .-handle_ble_CAR_Client_State
 482              		.text
 483              	.Letext0:
 484              		.file 2 "Generated_Source\\PSoC4/cytypes.h"
 485              		.file 3 "Generated_Source\\PSoC4/BLE_Stack.h"
 486              		.file 4 "Generated_Source\\PSoC4/BLE_StackGap.h"
 487              		.file 5 "Generated_Source\\PSoC4/BLE_StackGatt.h"
 488              		.file 6 "Generated_Source\\PSoC4/BLE_StackGattClient.h"
 489              		.file 7 "Generated_Source\\PSoC4/BLE_eventHandler.h"
 490              		.file 8 ".\\BLE_CAR_Client.h"